Archive member included because of file (symbol)

C:\Users\admin\SimplicityStudio\v4_workspace\soc-thunderboard-sense\protocol\bluetooth_2.6\lib\EFR32MG1P\GCC\bgapi.a(gecko_bgapi_hardware.c.obj)
                              ./radio_ble.o (gecko_bgapi_class_hardware_init)
C:\Users\admin\SimplicityStudio\v4_workspace\soc-thunderboard-sense\protocol\bluetooth_2.6\lib\EFR32MG1P\GCC\bgapi.a(gecko_bgapi_test.c.obj)
                              ./radio_ble.o (gecko_bgapi_class_test_init)
C:\Users\admin\SimplicityStudio\v4_workspace\soc-thunderboard-sense\protocol\bluetooth_2.6\lib\EFR32MG1P\GCC\bgapi.a(gecko_bgapi_dfu.c.obj)
                              ./radio_ble.o (gecko_bgapi_class_dfu_init)
C:\Users\admin\SimplicityStudio\v4_workspace\soc-thunderboard-sense\protocol\bluetooth_2.6\lib\EFR32MG1P\GCC\bgapi.a(gecko_bgapi_gap.c.obj)
                              ./radio_ble.o (gecko_bgapi_class_le_gap_init)
C:\Users\admin\SimplicityStudio\v4_workspace\soc-thunderboard-sense\protocol\bluetooth_2.6\lib\EFR32MG1P\GCC\bgapi.a(gecko_bgapi_gatt.c.obj)
                              ./radio_ble.o (gecko_bgapi_class_gatt_init)
C:\Users\admin\SimplicityStudio\v4_workspace\soc-thunderboard-sense\protocol\bluetooth_2.6\lib\EFR32MG1P\GCC\bgapi.a(gecko_bgapi_gatt_server.c.obj)
                              ./radio_ble.o (gecko_bgapi_class_gatt_server_init)
C:\Users\admin\SimplicityStudio\v4_workspace\soc-thunderboard-sense\protocol\bluetooth_2.6\lib\EFR32MG1P\GCC\bgapi.a(gecko_bgapi_flash.c.obj)
                              ./radio_ble.o (gecko_bgapi_class_flash_init)
C:\Users\admin\SimplicityStudio\v4_workspace\soc-thunderboard-sense\protocol\bluetooth_2.6\lib\EFR32MG1P\GCC\bgapi.a(gecko_bgapi_sm.c.obj)
                              ./radio_ble.o (gecko_bgapi_class_sm_init)
C:\Users\admin\SimplicityStudio\v4_workspace\soc-thunderboard-sense\protocol\bluetooth_2.6\lib\EFR32MG1P\GCC\bgapi.a(gecko_bgapi_system.c.obj)
                              ./radio_ble.o (gecko_bgapi_class_system_init)
C:\Users\admin\SimplicityStudio\v4_workspace\soc-thunderboard-sense\protocol\bluetooth_2.6\lib\EFR32MG1P\GCC\bgapi.a(gecko_bgapi_endpoint.c.obj)
                              ./radio_ble.o (gecko_bgapi_class_endpoint_init)
C:\Users\admin\SimplicityStudio\v4_workspace\soc-thunderboard-sense\protocol\bluetooth_2.6\lib\EFR32MG1P\GCC\bgapi.a(gecko_bgapi_le_connection.c.obj)
                              ./radio_ble.o (gecko_bgapi_class_le_connection_init)
C:\Users\admin\SimplicityStudio\v4_workspace\soc-thunderboard-sense\protocol\bluetooth_2.6\lib\EFR32MG1P\GCC\bgapi.a(bgapi_hardware.c.obj)
                              C:\Users\admin\SimplicityStudio\v4_workspace\soc-thunderboard-sense\protocol\bluetooth_2.6\lib\EFR32MG1P\GCC\bgapi.a(gecko_bgapi_hardware.c.obj) (lib_hardware_handler_init)
C:\Users\admin\SimplicityStudio\v4_workspace\soc-thunderboard-sense\protocol\bluetooth_2.6\lib\EFR32MG1P\GCC\bgapi.a(bgapi_test_lib.c.obj)
                              C:\Users\admin\SimplicityStudio\v4_workspace\soc-thunderboard-sense\protocol\bluetooth_2.6\lib\EFR32MG1P\GCC\bgapi.a(gecko_bgapi_test.c.obj) (lib_test_handler_init)
C:\Users\admin\SimplicityStudio\v4_workspace\soc-thunderboard-sense\protocol\bluetooth_2.6\lib\EFR32MG1P\GCC\bgapi.a(bgapi_dfu.c.obj)
                              C:\Users\admin\SimplicityStudio\v4_workspace\soc-thunderboard-sense\protocol\bluetooth_2.6\lib\EFR32MG1P\GCC\bgapi.a(gecko_bgapi_dfu.c.obj) (lib_dfu_handler_init)
C:\Users\admin\SimplicityStudio\v4_workspace\soc-thunderboard-sense\protocol\bluetooth_2.6\lib\EFR32MG1P\GCC\bgapi.a(bgapi_gap.c.obj)
                              C:\Users\admin\SimplicityStudio\v4_workspace\soc-thunderboard-sense\protocol\bluetooth_2.6\lib\EFR32MG1P\GCC\bgapi.a(gecko_bgapi_gap.c.obj) (lib_le_gap_handler_init)
C:\Users\admin\SimplicityStudio\v4_workspace\soc-thunderboard-sense\protocol\bluetooth_2.6\lib\EFR32MG1P\GCC\bgapi.a(bgapi_gatt_lib.c.obj)
                              C:\Users\admin\SimplicityStudio\v4_workspace\soc-thunderboard-sense\protocol\bluetooth_2.6\lib\EFR32MG1P\GCC\bgapi.a(gecko_bgapi_gatt.c.obj) (lib_gatt_handler_init)
C:\Users\admin\SimplicityStudio\v4_workspace\soc-thunderboard-sense\protocol\bluetooth_2.6\lib\EFR32MG1P\GCC\bgapi.a(bgapi_ps.c.obj)
                              C:\Users\admin\SimplicityStudio\v4_workspace\soc-thunderboard-sense\protocol\bluetooth_2.6\lib\EFR32MG1P\GCC\bgapi.a(gecko_bgapi_flash.c.obj) (lib_flash_handler_init)
C:\Users\admin\SimplicityStudio\v4_workspace\soc-thunderboard-sense\protocol\bluetooth_2.6\lib\EFR32MG1P\GCC\bgapi.a(bgapi_sm.c.obj)
                              C:\Users\admin\SimplicityStudio\v4_workspace\soc-thunderboard-sense\protocol\bluetooth_2.6\lib\EFR32MG1P\GCC\bgapi.a(gecko_bgapi_sm.c.obj) (lib_sm_handler_init)
C:\Users\admin\SimplicityStudio\v4_workspace\soc-thunderboard-sense\protocol\bluetooth_2.6\lib\EFR32MG1P\GCC\bgapi.a(bgapi_system.c.obj)
                              C:\Users\admin\SimplicityStudio\v4_workspace\soc-thunderboard-sense\protocol\bluetooth_2.6\lib\EFR32MG1P\GCC\bgapi.a(gecko_bgapi_system.c.obj) (lib_system_handler_init)
C:\Users\admin\SimplicityStudio\v4_workspace\soc-thunderboard-sense\protocol\bluetooth_2.6\lib\EFR32MG1P\GCC\bgapi.a(bgapi_endpoint.c.obj)
                              C:\Users\admin\SimplicityStudio\v4_workspace\soc-thunderboard-sense\protocol\bluetooth_2.6\lib\EFR32MG1P\GCC\bgapi.a(gecko_bgapi_endpoint.c.obj) (lib_endpoint_handler_init)
C:\Users\admin\SimplicityStudio\v4_workspace\soc-thunderboard-sense\protocol\bluetooth_2.6\lib\EFR32MG1P\GCC\bgapi.a(bgapi_le_connection.c.obj)
                              C:\Users\admin\SimplicityStudio\v4_workspace\soc-thunderboard-sense\protocol\bluetooth_2.6\lib\EFR32MG1P\GCC\bgapi.a(gecko_bgapi_le_connection.c.obj) (lib_le_connection_handler_init)
C:\Users\admin\SimplicityStudio\v4_workspace\soc-thunderboard-sense\protocol\bluetooth_2.6\lib\EFR32MG1P\GCC\bgapi.a(gatt_client.c.obj)
                              C:\Users\admin\SimplicityStudio\v4_workspace\soc-thunderboard-sense\protocol\bluetooth_2.6\lib\EFR32MG1P\GCC\bgapi.a(bgapi_gatt_lib.c.obj) (gatt_client_init)
C:\Users\admin\SimplicityStudio\v4_workspace\soc-thunderboard-sense\protocol\bluetooth_2.6\lib\EFR32MG1P\GCC\bgapi.a(ubt_gatt_client.c.obj)
                              C:\Users\admin\SimplicityStudio\v4_workspace\soc-thunderboard-sense\protocol\bluetooth_2.6\lib\EFR32MG1P\GCC\bgapi.a(bgapi_gatt_lib.c.obj) (ubt_gatt_discover_primary_services)
C:\Users\admin\SimplicityStudio\v4_workspace\soc-thunderboard-sense\protocol\bluetooth_2.6\lib\EFR32MG1P\GCC\bgapi.a(att_client.c.obj)
                              C:\Users\admin\SimplicityStudio\v4_workspace\soc-thunderboard-sense\protocol\bluetooth_2.6\lib\EFR32MG1P\GCC\bgapi.a(gatt_client.c.obj) (att_send_find_information_request)
c:/siliconlabs/simplicitystudio/v4/developer/toolchains/gnu_arm/4.9_2015q3/bin/../lib/gcc/arm-none-eabi/4.9.3/../../../../arm-none-eabi/lib/armv7e-m/fpu\libm.a(lib_a-wf_asin.o)
                              ./hardware/kit/common/bsp/thunderboard/imu/imu_dcm.o (asinf)
c:/siliconlabs/simplicitystudio/v4/developer/toolchains/gnu_arm/4.9_2015q3/bin/../lib/gcc/arm-none-eabi/4.9.3/../../../../arm-none-eabi/lib/armv7e-m/fpu\libm.a(lib_a-wf_atan2.o)
                              ./hardware/kit/common/bsp/thunderboard/imu/imu_dcm.o (atan2f)
c:/siliconlabs/simplicitystudio/v4/developer/toolchains/gnu_arm/4.9_2015q3/bin/../lib/gcc/arm-none-eabi/4.9.3/../../../../arm-none-eabi/lib/armv7e-m/fpu\libm.a(lib_a-wf_log10.o)
                              ./radio_ble.o (log10f)
c:/siliconlabs/simplicitystudio/v4/developer/toolchains/gnu_arm/4.9_2015q3/bin/../lib/gcc/arm-none-eabi/4.9.3/../../../../arm-none-eabi/lib/armv7e-m/fpu\libm.a(lib_a-ef_asin.o)
                              c:/siliconlabs/simplicitystudio/v4/developer/toolchains/gnu_arm/4.9_2015q3/bin/../lib/gcc/arm-none-eabi/4.9.3/../../../../arm-none-eabi/lib/armv7e-m/fpu\libm.a(lib_a-wf_asin.o) (__ieee754_asinf)
c:/siliconlabs/simplicitystudio/v4/developer/toolchains/gnu_arm/4.9_2015q3/bin/../lib/gcc/arm-none-eabi/4.9.3/../../../../arm-none-eabi/lib/armv7e-m/fpu\libm.a(lib_a-ef_atan2.o)
                              c:/siliconlabs/simplicitystudio/v4/developer/toolchains/gnu_arm/4.9_2015q3/bin/../lib/gcc/arm-none-eabi/4.9.3/../../../../arm-none-eabi/lib/armv7e-m/fpu\libm.a(lib_a-wf_atan2.o) (__ieee754_atan2f)
c:/siliconlabs/simplicitystudio/v4/developer/toolchains/gnu_arm/4.9_2015q3/bin/../lib/gcc/arm-none-eabi/4.9.3/../../../../arm-none-eabi/lib/armv7e-m/fpu\libm.a(lib_a-ef_log10.o)
                              c:/siliconlabs/simplicitystudio/v4/developer/toolchains/gnu_arm/4.9_2015q3/bin/../lib/gcc/arm-none-eabi/4.9.3/../../../../arm-none-eabi/lib/armv7e-m/fpu\libm.a(lib_a-wf_log10.o) (__ieee754_log10f)
c:/siliconlabs/simplicitystudio/v4/developer/toolchains/gnu_arm/4.9_2015q3/bin/../lib/gcc/arm-none-eabi/4.9.3/../../../../arm-none-eabi/lib/armv7e-m/fpu\libm.a(lib_a-ef_sqrt.o)
                              c:/siliconlabs/simplicitystudio/v4/developer/toolchains/gnu_arm/4.9_2015q3/bin/../lib/gcc/arm-none-eabi/4.9.3/../../../../arm-none-eabi/lib/armv7e-m/fpu\libm.a(lib_a-ef_asin.o) (__ieee754_sqrtf)
c:/siliconlabs/simplicitystudio/v4/developer/toolchains/gnu_arm/4.9_2015q3/bin/../lib/gcc/arm-none-eabi/4.9.3/../../../../arm-none-eabi/lib/armv7e-m/fpu\libm.a(lib_a-s_lib_ver.o)
                              c:/siliconlabs/simplicitystudio/v4/developer/toolchains/gnu_arm/4.9_2015q3/bin/../lib/gcc/arm-none-eabi/4.9.3/../../../../arm-none-eabi/lib/armv7e-m/fpu\libm.a(lib_a-wf_asin.o) (__fdlib_version)
c:/siliconlabs/simplicitystudio/v4/developer/toolchains/gnu_arm/4.9_2015q3/bin/../lib/gcc/arm-none-eabi/4.9.3/../../../../arm-none-eabi/lib/armv7e-m/fpu\libm.a(lib_a-s_matherr.o)
                              c:/siliconlabs/simplicitystudio/v4/developer/toolchains/gnu_arm/4.9_2015q3/bin/../lib/gcc/arm-none-eabi/4.9.3/../../../../arm-none-eabi/lib/armv7e-m/fpu\libm.a(lib_a-wf_asin.o) (matherr)
c:/siliconlabs/simplicitystudio/v4/developer/toolchains/gnu_arm/4.9_2015q3/bin/../lib/gcc/arm-none-eabi/4.9.3/../../../../arm-none-eabi/lib/armv7e-m/fpu\libm.a(lib_a-s_nan.o)
                              c:/siliconlabs/simplicitystudio/v4/developer/toolchains/gnu_arm/4.9_2015q3/bin/../lib/gcc/arm-none-eabi/4.9.3/../../../../arm-none-eabi/lib/armv7e-m/fpu\libm.a(lib_a-wf_asin.o) (nan)
c:/siliconlabs/simplicitystudio/v4/developer/toolchains/gnu_arm/4.9_2015q3/bin/../lib/gcc/arm-none-eabi/4.9.3/../../../../arm-none-eabi/lib/armv7e-m/fpu\libm.a(lib_a-sf_atan.o)
                              c:/siliconlabs/simplicitystudio/v4/developer/toolchains/gnu_arm/4.9_2015q3/bin/../lib/gcc/arm-none-eabi/4.9.3/../../../../arm-none-eabi/lib/armv7e-m/fpu\libm.a(lib_a-ef_atan2.o) (atanf)
c:/siliconlabs/simplicitystudio/v4/developer/toolchains/gnu_arm/4.9_2015q3/bin/../lib/gcc/arm-none-eabi/4.9.3/../../../../arm-none-eabi/lib/armv7e-m/fpu\libm.a(lib_a-sf_fabs.o)
                              c:/siliconlabs/simplicitystudio/v4/developer/toolchains/gnu_arm/4.9_2015q3/bin/../lib/gcc/arm-none-eabi/4.9.3/../../../../arm-none-eabi/lib/armv7e-m/fpu\libm.a(lib_a-wf_asin.o) (fabsf)
c:/siliconlabs/simplicitystudio/v4/developer/toolchains/gnu_arm/4.9_2015q3/bin/../lib/gcc/arm-none-eabi/4.9.3/../../../../arm-none-eabi/lib/armv7e-m/fpu\libm.a(lib_a-sf_fpclassify.o)
                              c:/siliconlabs/simplicitystudio/v4/developer/toolchains/gnu_arm/4.9_2015q3/bin/../lib/gcc/arm-none-eabi/4.9.3/../../../../arm-none-eabi/lib/armv7e-m/fpu\libm.a(lib_a-wf_asin.o) (__fpclassifyf)
c:/siliconlabs/simplicitystudio/v4/developer/toolchains/gnu_arm/4.9_2015q3/bin/../lib/gcc/arm-none-eabi/4.9.3/../../../../arm-none-eabi/lib/armv7e-m/fpu\libm.a(lib_a-ef_log.o)
                              c:/siliconlabs/simplicitystudio/v4/developer/toolchains/gnu_arm/4.9_2015q3/bin/../lib/gcc/arm-none-eabi/4.9.3/../../../../arm-none-eabi/lib/armv7e-m/fpu\libm.a(lib_a-ef_log10.o) (__ieee754_logf)
c:/siliconlabs/simplicitystudio/v4/developer/toolchains/gnu_arm/4.9_2015q3/bin/../lib/gcc/arm-none-eabi/4.9.3/armv7e-m/fpu\libgcc.a(_arm_addsubdf3.o)
                              ./hardware/kit/common/bsp/thunderboard/icm20648.o (__aeabi_dsub)
c:/siliconlabs/simplicitystudio/v4/developer/toolchains/gnu_arm/4.9_2015q3/bin/../lib/gcc/arm-none-eabi/4.9.3/armv7e-m/fpu\libgcc.a(_arm_muldivdf3.o)
                              ./hardware/kit/common/bsp/thunderboard/util_supply.o (__aeabi_dmul)
c:/siliconlabs/simplicitystudio/v4/developer/toolchains/gnu_arm/4.9_2015q3/bin/../lib/gcc/arm-none-eabi/4.9.3/armv7e-m/fpu\libgcc.a(_arm_cmpdf2.o)
                              ./hardware/kit/common/bsp/thunderboard/bosch/BMP280_driver/bmp280.o (__aeabi_dcmpeq)
c:/siliconlabs/simplicitystudio/v4/developer/toolchains/gnu_arm/4.9_2015q3/bin/../lib/gcc/arm-none-eabi/4.9.3/armv7e-m/fpu\libgcc.a(_arm_unorddf2.o)
                              ./hardware/kit/common/bsp/thunderboard/bosch/BMP280_driver/bmp280.o (__aeabi_dcmpun)
c:/siliconlabs/simplicitystudio/v4/developer/toolchains/gnu_arm/4.9_2015q3/bin/../lib/gcc/arm-none-eabi/4.9.3/armv7e-m/fpu\libgcc.a(_arm_fixdfsi.o)
                              ./hardware/kit/common/bsp/thunderboard/icm20648.o (__aeabi_d2iz)
c:/siliconlabs/simplicitystudio/v4/developer/toolchains/gnu_arm/4.9_2015q3/bin/../lib/gcc/arm-none-eabi/4.9.3/armv7e-m/fpu\libgcc.a(_arm_truncdfsf2.o)
                              ./hardware/kit/common/bsp/thunderboard/icm20648.o (__aeabi_d2f)
c:/siliconlabs/simplicitystudio/v4/developer/toolchains/gnu_arm/4.9_2015q3/bin/../lib/gcc/arm-none-eabi/4.9.3/armv7e-m/fpu\libgcc.a(_aeabi_ldivmod.o)
                              ./hardware/kit/common/bsp/thunderboard/bosch/BMP280_driver/bmp280.o (__aeabi_ldivmod)
c:/siliconlabs/simplicitystudio/v4/developer/toolchains/gnu_arm/4.9_2015q3/bin/../lib/gcc/arm-none-eabi/4.9.3/armv7e-m/fpu\libgcc.a(_aeabi_uldivmod.o)
                              ./platform/emlib/src/em_usart.o (__aeabi_uldivmod)
c:/siliconlabs/simplicitystudio/v4/developer/toolchains/gnu_arm/4.9_2015q3/bin/../lib/gcc/arm-none-eabi/4.9.3/armv7e-m/fpu\libgcc.a(bpabi.o)
                              c:/siliconlabs/simplicitystudio/v4/developer/toolchains/gnu_arm/4.9_2015q3/bin/../lib/gcc/arm-none-eabi/4.9.3/armv7e-m/fpu\libgcc.a(_aeabi_ldivmod.o) (__gnu_ldivmod_helper)
c:/siliconlabs/simplicitystudio/v4/developer/toolchains/gnu_arm/4.9_2015q3/bin/../lib/gcc/arm-none-eabi/4.9.3/armv7e-m/fpu\libgcc.a(_dvmd_tls.o)
                              c:/siliconlabs/simplicitystudio/v4/developer/toolchains/gnu_arm/4.9_2015q3/bin/../lib/gcc/arm-none-eabi/4.9.3/armv7e-m/fpu\libgcc.a(_aeabi_ldivmod.o) (__aeabi_ldiv0)
c:/siliconlabs/simplicitystudio/v4/developer/toolchains/gnu_arm/4.9_2015q3/bin/../lib/gcc/arm-none-eabi/4.9.3/armv7e-m/fpu\libgcc.a(_divdi3.o)
                              c:/siliconlabs/simplicitystudio/v4/developer/toolchains/gnu_arm/4.9_2015q3/bin/../lib/gcc/arm-none-eabi/4.9.3/armv7e-m/fpu\libgcc.a(bpabi.o) (__divdi3)
c:/siliconlabs/simplicitystudio/v4/developer/toolchains/gnu_arm/4.9_2015q3/bin/../lib/gcc/arm-none-eabi/4.9.3/armv7e-m/fpu\libgcc.a(_udivdi3.o)
                              c:/siliconlabs/simplicitystudio/v4/developer/toolchains/gnu_arm/4.9_2015q3/bin/../lib/gcc/arm-none-eabi/4.9.3/armv7e-m/fpu\libgcc.a(bpabi.o) (__udivdi3)
c:/siliconlabs/simplicitystudio/v4/developer/toolchains/gnu_arm/4.9_2015q3/bin/../lib/gcc/arm-none-eabi/4.9.3/../../../../arm-none-eabi/lib/armv7e-m/fpu\libc.a(lib_a-errno.o)
                              c:/siliconlabs/simplicitystudio/v4/developer/toolchains/gnu_arm/4.9_2015q3/bin/../lib/gcc/arm-none-eabi/4.9.3/../../../../arm-none-eabi/lib/armv7e-m/fpu\libm.a(lib_a-wf_asin.o) (__errno)
c:/siliconlabs/simplicitystudio/v4/developer/toolchains/gnu_arm/4.9_2015q3/bin/../lib/gcc/arm-none-eabi/4.9.3/../../../../arm-none-eabi/lib/armv7e-m/fpu\libc.a(lib_a-exit.o)
                              c:/siliconlabs/simplicitystudio/v4/developer/toolchains/gnu_arm/4.9_2015q3/bin/../lib/gcc/arm-none-eabi/4.9.3/../../../../arm-none-eabi/lib/armv7e-m/fpu/crt0.o (exit)
c:/siliconlabs/simplicitystudio/v4/developer/toolchains/gnu_arm/4.9_2015q3/bin/../lib/gcc/arm-none-eabi/4.9.3/../../../../arm-none-eabi/lib/armv7e-m/fpu\libc.a(lib_a-impure.o)
                              c:/siliconlabs/simplicitystudio/v4/developer/toolchains/gnu_arm/4.9_2015q3/bin/../lib/gcc/arm-none-eabi/4.9.3/../../../../arm-none-eabi/lib/armv7e-m/fpu\libc.a(lib_a-exit.o) (_global_impure_ptr)
c:/siliconlabs/simplicitystudio/v4/developer/toolchains/gnu_arm/4.9_2015q3/bin/../lib/gcc/arm-none-eabi/4.9.3/../../../../arm-none-eabi/lib/armv7e-m/fpu\libc.a(lib_a-init.o)
                              c:/siliconlabs/simplicitystudio/v4/developer/toolchains/gnu_arm/4.9_2015q3/bin/../lib/gcc/arm-none-eabi/4.9.3/../../../../arm-none-eabi/lib/armv7e-m/fpu/crt0.o (__libc_init_array)
c:/siliconlabs/simplicitystudio/v4/developer/toolchains/gnu_arm/4.9_2015q3/bin/../lib/gcc/arm-none-eabi/4.9.3/../../../../arm-none-eabi/lib/armv7e-m/fpu\libc.a(lib_a-memcpy.o)
                              ./app.o (memcpy)
c:/siliconlabs/simplicitystudio/v4/developer/toolchains/gnu_arm/4.9_2015q3/bin/../lib/gcc/arm-none-eabi/4.9.3/../../../../arm-none-eabi/lib/armv7e-m/fpu\libc.a(lib_a-memset.o)
                              c:/siliconlabs/simplicitystudio/v4/developer/toolchains/gnu_arm/4.9_2015q3/bin/../lib/gcc/arm-none-eabi/4.9.3/../../../../arm-none-eabi/lib/armv7e-m/fpu/crt0.o (memset)
c:/siliconlabs/simplicitystudio/v4/developer/toolchains/gnu_arm/4.9_2015q3/bin/../lib/gcc/arm-none-eabi/4.9.3/../../../../arm-none-eabi/lib/armv7e-m/fpu\libc.a(lib_a-printf.o)
                              ./advertisement-callback.o (printf)
c:/siliconlabs/simplicitystudio/v4/developer/toolchains/gnu_arm/4.9_2015q3/bin/../lib/gcc/arm-none-eabi/4.9.3/../../../../arm-none-eabi/lib/armv7e-m/fpu\libc.a(lib_a-puts.o)
                              ./connection-callback.o (puts)
c:/siliconlabs/simplicitystudio/v4/developer/toolchains/gnu_arm/4.9_2015q3/bin/../lib/gcc/arm-none-eabi/4.9.3/../../../../arm-none-eabi/lib/armv7e-m/fpu\libc.a(lib_a-setvbuf.o)
                              ./hardware/kit/common/drivers/retargetserial.o (setvbuf)
c:/siliconlabs/simplicitystudio/v4/developer/toolchains/gnu_arm/4.9_2015q3/bin/../lib/gcc/arm-none-eabi/4.9.3/../../../../arm-none-eabi/lib/armv7e-m/fpu\libc.a(lib_a-snprintf.o)
                              ./app.o (snprintf)
c:/siliconlabs/simplicitystudio/v4/developer/toolchains/gnu_arm/4.9_2015q3/bin/../lib/gcc/arm-none-eabi/4.9.3/../../../../arm-none-eabi/lib/armv7e-m/fpu\libc.a(lib_a-sprintf.o)
                              ./app_ble.o (sprintf)
c:/siliconlabs/simplicitystudio/v4/developer/toolchains/gnu_arm/4.9_2015q3/bin/../lib/gcc/arm-none-eabi/4.9.3/../../../../arm-none-eabi/lib/armv7e-m/fpu\libc.a(lib_a-strlen.o)
                              ./app.o (strlen)
c:/siliconlabs/simplicitystudio/v4/developer/toolchains/gnu_arm/4.9_2015q3/bin/../lib/gcc/arm-none-eabi/4.9.3/../../../../arm-none-eabi/lib/armv7e-m/fpu\libc.a(lib_a-strncmp.o)
                              ./hardware/kit/common/bsp/thunderboard/rfs/rfs.o (strncmp)
c:/siliconlabs/simplicitystudio/v4/developer/toolchains/gnu_arm/4.9_2015q3/bin/../lib/gcc/arm-none-eabi/4.9.3/../../../../arm-none-eabi/lib/armv7e-m/fpu\libc.a(lib_a-strncpy.o)
                              ./app_ble_adv.o (strncpy)
c:/siliconlabs/simplicitystudio/v4/developer/toolchains/gnu_arm/4.9_2015q3/bin/../lib/gcc/arm-none-eabi/4.9.3/../../../../arm-none-eabi/lib/armv7e-m/fpu\libc.a(lib_a-svfprintf.o)
                              c:/siliconlabs/simplicitystudio/v4/developer/toolchains/gnu_arm/4.9_2015q3/bin/../lib/gcc/arm-none-eabi/4.9.3/../../../../arm-none-eabi/lib/armv7e-m/fpu\libc.a(lib_a-snprintf.o) (_svfprintf_r)
c:/siliconlabs/simplicitystudio/v4/developer/toolchains/gnu_arm/4.9_2015q3/bin/../lib/gcc/arm-none-eabi/4.9.3/../../../../arm-none-eabi/lib/armv7e-m/fpu\libc.a(lib_a-vfprintf.o)
                              c:/siliconlabs/simplicitystudio/v4/developer/toolchains/gnu_arm/4.9_2015q3/bin/../lib/gcc/arm-none-eabi/4.9.3/../../../../arm-none-eabi/lib/armv7e-m/fpu\libc.a(lib_a-printf.o) (_vfprintf_r)
c:/siliconlabs/simplicitystudio/v4/developer/toolchains/gnu_arm/4.9_2015q3/bin/../lib/gcc/arm-none-eabi/4.9.3/../../../../arm-none-eabi/lib/armv7e-m/fpu\libc.a(lib_a-wsetup.o)
                              c:/siliconlabs/simplicitystudio/v4/developer/toolchains/gnu_arm/4.9_2015q3/bin/../lib/gcc/arm-none-eabi/4.9.3/../../../../arm-none-eabi/lib/armv7e-m/fpu\libc.a(lib_a-vfprintf.o) (__swsetup_r)
c:/siliconlabs/simplicitystudio/v4/developer/toolchains/gnu_arm/4.9_2015q3/bin/../lib/gcc/arm-none-eabi/4.9.3/../../../../arm-none-eabi/lib/armv7e-m/fpu\libc.a(lib_a-__call_atexit.o)
                              c:/siliconlabs/simplicitystudio/v4/developer/toolchains/gnu_arm/4.9_2015q3/bin/../lib/gcc/arm-none-eabi/4.9.3/../../../../arm-none-eabi/lib/armv7e-m/fpu\libc.a(lib_a-exit.o) (__call_exitprocs)
c:/siliconlabs/simplicitystudio/v4/developer/toolchains/gnu_arm/4.9_2015q3/bin/../lib/gcc/arm-none-eabi/4.9.3/../../../../arm-none-eabi/lib/armv7e-m/fpu\libc.a(lib_a-atexit.o)
                              c:/siliconlabs/simplicitystudio/v4/developer/toolchains/gnu_arm/4.9_2015q3/bin/../lib/gcc/arm-none-eabi/4.9.3/../../../../arm-none-eabi/lib/armv7e-m/fpu\libc.a(lib_a-__call_atexit.o) (atexit)
c:/siliconlabs/simplicitystudio/v4/developer/toolchains/gnu_arm/4.9_2015q3/bin/../lib/gcc/arm-none-eabi/4.9.3/../../../../arm-none-eabi/lib/armv7e-m/fpu\libc.a(lib_a-dtoa.o)
                              c:/siliconlabs/simplicitystudio/v4/developer/toolchains/gnu_arm/4.9_2015q3/bin/../lib/gcc/arm-none-eabi/4.9.3/../../../../arm-none-eabi/lib/armv7e-m/fpu\libc.a(lib_a-svfprintf.o) (_dtoa_r)
c:/siliconlabs/simplicitystudio/v4/developer/toolchains/gnu_arm/4.9_2015q3/bin/../lib/gcc/arm-none-eabi/4.9.3/../../../../arm-none-eabi/lib/armv7e-m/fpu\libc.a(lib_a-fflush.o)
                              c:/siliconlabs/simplicitystudio/v4/developer/toolchains/gnu_arm/4.9_2015q3/bin/../lib/gcc/arm-none-eabi/4.9.3/../../../../arm-none-eabi/lib/armv7e-m/fpu\libc.a(lib_a-setvbuf.o) (_fflush_r)
c:/siliconlabs/simplicitystudio/v4/developer/toolchains/gnu_arm/4.9_2015q3/bin/../lib/gcc/arm-none-eabi/4.9.3/../../../../arm-none-eabi/lib/armv7e-m/fpu\libc.a(lib_a-findfp.o)
                              c:/siliconlabs/simplicitystudio/v4/developer/toolchains/gnu_arm/4.9_2015q3/bin/../lib/gcc/arm-none-eabi/4.9.3/../../../../arm-none-eabi/lib/armv7e-m/fpu\libc.a(lib_a-setvbuf.o) (_cleanup_r)
c:/siliconlabs/simplicitystudio/v4/developer/toolchains/gnu_arm/4.9_2015q3/bin/../lib/gcc/arm-none-eabi/4.9.3/../../../../arm-none-eabi/lib/armv7e-m/fpu\libc.a(lib_a-fini.o)
                              c:/siliconlabs/simplicitystudio/v4/developer/toolchains/gnu_arm/4.9_2015q3/bin/../lib/gcc/arm-none-eabi/4.9.3/../../../../arm-none-eabi/lib/armv7e-m/fpu\libc.a(lib_a-__call_atexit.o) (__libc_fini_array)
c:/siliconlabs/simplicitystudio/v4/developer/toolchains/gnu_arm/4.9_2015q3/bin/../lib/gcc/arm-none-eabi/4.9.3/../../../../arm-none-eabi/lib/armv7e-m/fpu\libc.a(lib_a-freer.o)
                              c:/siliconlabs/simplicitystudio/v4/developer/toolchains/gnu_arm/4.9_2015q3/bin/../lib/gcc/arm-none-eabi/4.9.3/../../../../arm-none-eabi/lib/armv7e-m/fpu\libc.a(lib_a-setvbuf.o) (_free_r)
c:/siliconlabs/simplicitystudio/v4/developer/toolchains/gnu_arm/4.9_2015q3/bin/../lib/gcc/arm-none-eabi/4.9.3/../../../../arm-none-eabi/lib/armv7e-m/fpu\libc.a(lib_a-fvwrite.o)
                              c:/siliconlabs/simplicitystudio/v4/developer/toolchains/gnu_arm/4.9_2015q3/bin/../lib/gcc/arm-none-eabi/4.9.3/../../../../arm-none-eabi/lib/armv7e-m/fpu\libc.a(lib_a-puts.o) (__sfvwrite_r)
c:/siliconlabs/simplicitystudio/v4/developer/toolchains/gnu_arm/4.9_2015q3/bin/../lib/gcc/arm-none-eabi/4.9.3/../../../../arm-none-eabi/lib/armv7e-m/fpu\libc.a(lib_a-fwalk.o)
                              c:/siliconlabs/simplicitystudio/v4/developer/toolchains/gnu_arm/4.9_2015q3/bin/../lib/gcc/arm-none-eabi/4.9.3/../../../../arm-none-eabi/lib/armv7e-m/fpu\libc.a(lib_a-findfp.o) (_fwalk)
c:/siliconlabs/simplicitystudio/v4/developer/toolchains/gnu_arm/4.9_2015q3/bin/../lib/gcc/arm-none-eabi/4.9.3/../../../../arm-none-eabi/lib/armv7e-m/fpu\libc.a(lib_a-locale.o)
                              c:/siliconlabs/simplicitystudio/v4/developer/toolchains/gnu_arm/4.9_2015q3/bin/../lib/gcc/arm-none-eabi/4.9.3/../../../../arm-none-eabi/lib/armv7e-m/fpu\libc.a(lib_a-svfprintf.o) (_localeconv_r)
c:/siliconlabs/simplicitystudio/v4/developer/toolchains/gnu_arm/4.9_2015q3/bin/../lib/gcc/arm-none-eabi/4.9.3/../../../../arm-none-eabi/lib/armv7e-m/fpu\libc.a(lib_a-makebuf.o)
                              c:/siliconlabs/simplicitystudio/v4/developer/toolchains/gnu_arm/4.9_2015q3/bin/../lib/gcc/arm-none-eabi/4.9.3/../../../../arm-none-eabi/lib/armv7e-m/fpu\libc.a(lib_a-wsetup.o) (__smakebuf_r)
c:/siliconlabs/simplicitystudio/v4/developer/toolchains/gnu_arm/4.9_2015q3/bin/../lib/gcc/arm-none-eabi/4.9.3/../../../../arm-none-eabi/lib/armv7e-m/fpu\libc.a(lib_a-malloc.o)
                              c:/siliconlabs/simplicitystudio/v4/developer/toolchains/gnu_arm/4.9_2015q3/bin/../lib/gcc/arm-none-eabi/4.9.3/../../../../arm-none-eabi/lib/armv7e-m/fpu\libc.a(lib_a-setvbuf.o) (malloc)
c:/siliconlabs/simplicitystudio/v4/developer/toolchains/gnu_arm/4.9_2015q3/bin/../lib/gcc/arm-none-eabi/4.9.3/../../../../arm-none-eabi/lib/armv7e-m/fpu\libc.a(lib_a-mallocr.o)
                              c:/siliconlabs/simplicitystudio/v4/developer/toolchains/gnu_arm/4.9_2015q3/bin/../lib/gcc/arm-none-eabi/4.9.3/../../../../arm-none-eabi/lib/armv7e-m/fpu\libc.a(lib_a-svfprintf.o) (_malloc_r)
c:/siliconlabs/simplicitystudio/v4/developer/toolchains/gnu_arm/4.9_2015q3/bin/../lib/gcc/arm-none-eabi/4.9.3/../../../../arm-none-eabi/lib/armv7e-m/fpu\libc.a(lib_a-memchr.o)
                              c:/siliconlabs/simplicitystudio/v4/developer/toolchains/gnu_arm/4.9_2015q3/bin/../lib/gcc/arm-none-eabi/4.9.3/../../../../arm-none-eabi/lib/armv7e-m/fpu\libc.a(lib_a-svfprintf.o) (memchr)
c:/siliconlabs/simplicitystudio/v4/developer/toolchains/gnu_arm/4.9_2015q3/bin/../lib/gcc/arm-none-eabi/4.9.3/../../../../arm-none-eabi/lib/armv7e-m/fpu\libc.a(lib_a-memmove.o)
                              c:/siliconlabs/simplicitystudio/v4/developer/toolchains/gnu_arm/4.9_2015q3/bin/../lib/gcc/arm-none-eabi/4.9.3/../../../../arm-none-eabi/lib/armv7e-m/fpu\libc.a(lib_a-fvwrite.o) (memmove)
c:/siliconlabs/simplicitystudio/v4/developer/toolchains/gnu_arm/4.9_2015q3/bin/../lib/gcc/arm-none-eabi/4.9.3/../../../../arm-none-eabi/lib/armv7e-m/fpu\libc.a(lib_a-mlock.o)
                              c:/siliconlabs/simplicitystudio/v4/developer/toolchains/gnu_arm/4.9_2015q3/bin/../lib/gcc/arm-none-eabi/4.9.3/../../../../arm-none-eabi/lib/armv7e-m/fpu\libc.a(lib_a-freer.o) (__malloc_lock)
c:/siliconlabs/simplicitystudio/v4/developer/toolchains/gnu_arm/4.9_2015q3/bin/../lib/gcc/arm-none-eabi/4.9.3/../../../../arm-none-eabi/lib/armv7e-m/fpu\libc.a(lib_a-mprec.o)
                              c:/siliconlabs/simplicitystudio/v4/developer/toolchains/gnu_arm/4.9_2015q3/bin/../lib/gcc/arm-none-eabi/4.9.3/../../../../arm-none-eabi/lib/armv7e-m/fpu\libc.a(lib_a-dtoa.o) (_Balloc)
c:/siliconlabs/simplicitystudio/v4/developer/toolchains/gnu_arm/4.9_2015q3/bin/../lib/gcc/arm-none-eabi/4.9.3/../../../../arm-none-eabi/lib/armv7e-m/fpu\libc.a(lib_a-reallocr.o)
                              c:/siliconlabs/simplicitystudio/v4/developer/toolchains/gnu_arm/4.9_2015q3/bin/../lib/gcc/arm-none-eabi/4.9.3/../../../../arm-none-eabi/lib/armv7e-m/fpu\libc.a(lib_a-fvwrite.o) (_realloc_r)
c:/siliconlabs/simplicitystudio/v4/developer/toolchains/gnu_arm/4.9_2015q3/bin/../lib/gcc/arm-none-eabi/4.9.3/../../../../arm-none-eabi/lib/armv7e-m/fpu\libc.a(lib_a-s_fpclassify.o)
                              c:/siliconlabs/simplicitystudio/v4/developer/toolchains/gnu_arm/4.9_2015q3/bin/../lib/gcc/arm-none-eabi/4.9.3/../../../../arm-none-eabi/lib/armv7e-m/fpu\libc.a(lib_a-svfprintf.o) (__fpclassifyd)
c:/siliconlabs/simplicitystudio/v4/developer/toolchains/gnu_arm/4.9_2015q3/bin/../lib/gcc/arm-none-eabi/4.9.3/../../../../arm-none-eabi/lib/armv7e-m/fpu\libc.a(lib_a-sbrkr.o)
                              c:/siliconlabs/simplicitystudio/v4/developer/toolchains/gnu_arm/4.9_2015q3/bin/../lib/gcc/arm-none-eabi/4.9.3/../../../../arm-none-eabi/lib/armv7e-m/fpu\libc.a(lib_a-freer.o) (_sbrk_r)
c:/siliconlabs/simplicitystudio/v4/developer/toolchains/gnu_arm/4.9_2015q3/bin/../lib/gcc/arm-none-eabi/4.9.3/../../../../arm-none-eabi/lib/armv7e-m/fpu\libc.a(lib_a-stdio.o)
                              c:/siliconlabs/simplicitystudio/v4/developer/toolchains/gnu_arm/4.9_2015q3/bin/../lib/gcc/arm-none-eabi/4.9.3/../../../../arm-none-eabi/lib/armv7e-m/fpu\libc.a(lib_a-findfp.o) (__sread)
c:/siliconlabs/simplicitystudio/v4/developer/toolchains/gnu_arm/4.9_2015q3/bin/../lib/gcc/arm-none-eabi/4.9.3/../../../../arm-none-eabi/lib/armv7e-m/fpu\libc.a(lib_a-strcmp.o)
                              c:/siliconlabs/simplicitystudio/v4/developer/toolchains/gnu_arm/4.9_2015q3/bin/../lib/gcc/arm-none-eabi/4.9.3/../../../../arm-none-eabi/lib/armv7e-m/fpu\libc.a(lib_a-locale.o) (strcmp)
c:/siliconlabs/simplicitystudio/v4/developer/toolchains/gnu_arm/4.9_2015q3/bin/../lib/gcc/arm-none-eabi/4.9.3/../../../../arm-none-eabi/lib/armv7e-m/fpu\libc.a(lib_a-svfiprintf.o)
                              c:/siliconlabs/simplicitystudio/v4/developer/toolchains/gnu_arm/4.9_2015q3/bin/../lib/gcc/arm-none-eabi/4.9.3/../../../../arm-none-eabi/lib/armv7e-m/fpu\libc.a(lib_a-svfprintf.o) (__ssprint_r)
c:/siliconlabs/simplicitystudio/v4/developer/toolchains/gnu_arm/4.9_2015q3/bin/../lib/gcc/arm-none-eabi/4.9.3/../../../../arm-none-eabi/lib/armv7e-m/fpu\libc.a(lib_a-vfiprintf.o)
                              c:/siliconlabs/simplicitystudio/v4/developer/toolchains/gnu_arm/4.9_2015q3/bin/../lib/gcc/arm-none-eabi/4.9.3/../../../../arm-none-eabi/lib/armv7e-m/fpu\libc.a(lib_a-vfprintf.o) (__sprint_r)
c:/siliconlabs/simplicitystudio/v4/developer/toolchains/gnu_arm/4.9_2015q3/bin/../lib/gcc/arm-none-eabi/4.9.3/../../../../arm-none-eabi/lib/armv7e-m/fpu\libc.a(lib_a-writer.o)
                              c:/siliconlabs/simplicitystudio/v4/developer/toolchains/gnu_arm/4.9_2015q3/bin/../lib/gcc/arm-none-eabi/4.9.3/../../../../arm-none-eabi/lib/armv7e-m/fpu\libc.a(lib_a-stdio.o) (_write_r)
c:/siliconlabs/simplicitystudio/v4/developer/toolchains/gnu_arm/4.9_2015q3/bin/../lib/gcc/arm-none-eabi/4.9.3/../../../../arm-none-eabi/lib/armv7e-m/fpu\libc.a(lib_a-__atexit.o)
                              c:/siliconlabs/simplicitystudio/v4/developer/toolchains/gnu_arm/4.9_2015q3/bin/../lib/gcc/arm-none-eabi/4.9.3/../../../../arm-none-eabi/lib/armv7e-m/fpu\libc.a(lib_a-atexit.o) (__register_exitproc)
c:/siliconlabs/simplicitystudio/v4/developer/toolchains/gnu_arm/4.9_2015q3/bin/../lib/gcc/arm-none-eabi/4.9.3/../../../../arm-none-eabi/lib/armv7e-m/fpu\libc.a(lib_a-callocr.o)
                              c:/siliconlabs/simplicitystudio/v4/developer/toolchains/gnu_arm/4.9_2015q3/bin/../lib/gcc/arm-none-eabi/4.9.3/../../../../arm-none-eabi/lib/armv7e-m/fpu\libc.a(lib_a-mprec.o) (_calloc_r)
c:/siliconlabs/simplicitystudio/v4/developer/toolchains/gnu_arm/4.9_2015q3/bin/../lib/gcc/arm-none-eabi/4.9.3/../../../../arm-none-eabi/lib/armv7e-m/fpu\libc.a(lib_a-closer.o)
                              c:/siliconlabs/simplicitystudio/v4/developer/toolchains/gnu_arm/4.9_2015q3/bin/../lib/gcc/arm-none-eabi/4.9.3/../../../../arm-none-eabi/lib/armv7e-m/fpu\libc.a(lib_a-stdio.o) (_close_r)
c:/siliconlabs/simplicitystudio/v4/developer/toolchains/gnu_arm/4.9_2015q3/bin/../lib/gcc/arm-none-eabi/4.9.3/../../../../arm-none-eabi/lib/armv7e-m/fpu\libc.a(lib_a-fclose.o)
                              c:/siliconlabs/simplicitystudio/v4/developer/toolchains/gnu_arm/4.9_2015q3/bin/../lib/gcc/arm-none-eabi/4.9.3/../../../../arm-none-eabi/lib/armv7e-m/fpu\libc.a(lib_a-findfp.o) (_fclose_r)
c:/siliconlabs/simplicitystudio/v4/developer/toolchains/gnu_arm/4.9_2015q3/bin/../lib/gcc/arm-none-eabi/4.9.3/../../../../arm-none-eabi/lib/armv7e-m/fpu\libc.a(lib_a-fputwc.o)
                              c:/siliconlabs/simplicitystudio/v4/developer/toolchains/gnu_arm/4.9_2015q3/bin/../lib/gcc/arm-none-eabi/4.9.3/../../../../arm-none-eabi/lib/armv7e-m/fpu\libc.a(lib_a-vfiprintf.o) (_fputwc_r)
c:/siliconlabs/simplicitystudio/v4/developer/toolchains/gnu_arm/4.9_2015q3/bin/../lib/gcc/arm-none-eabi/4.9.3/../../../../arm-none-eabi/lib/armv7e-m/fpu\libc.a(lib_a-fstatr.o)
                              c:/siliconlabs/simplicitystudio/v4/developer/toolchains/gnu_arm/4.9_2015q3/bin/../lib/gcc/arm-none-eabi/4.9.3/../../../../arm-none-eabi/lib/armv7e-m/fpu\libc.a(lib_a-makebuf.o) (_fstat_r)
c:/siliconlabs/simplicitystudio/v4/developer/toolchains/gnu_arm/4.9_2015q3/bin/../lib/gcc/arm-none-eabi/4.9.3/../../../../arm-none-eabi/lib/armv7e-m/fpu\libc.a(lib_a-isattyr.o)
                              c:/siliconlabs/simplicitystudio/v4/developer/toolchains/gnu_arm/4.9_2015q3/bin/../lib/gcc/arm-none-eabi/4.9.3/../../../../arm-none-eabi/lib/armv7e-m/fpu\libc.a(lib_a-makebuf.o) (_isatty_r)
c:/siliconlabs/simplicitystudio/v4/developer/toolchains/gnu_arm/4.9_2015q3/bin/../lib/gcc/arm-none-eabi/4.9.3/../../../../arm-none-eabi/lib/armv7e-m/fpu\libc.a(lib_a-lseekr.o)
                              c:/siliconlabs/simplicitystudio/v4/developer/toolchains/gnu_arm/4.9_2015q3/bin/../lib/gcc/arm-none-eabi/4.9.3/../../../../arm-none-eabi/lib/armv7e-m/fpu\libc.a(lib_a-stdio.o) (_lseek_r)
c:/siliconlabs/simplicitystudio/v4/developer/toolchains/gnu_arm/4.9_2015q3/bin/../lib/gcc/arm-none-eabi/4.9.3/../../../../arm-none-eabi/lib/armv7e-m/fpu\libc.a(lib_a-readr.o)
                              c:/siliconlabs/simplicitystudio/v4/developer/toolchains/gnu_arm/4.9_2015q3/bin/../lib/gcc/arm-none-eabi/4.9.3/../../../../arm-none-eabi/lib/armv7e-m/fpu\libc.a(lib_a-stdio.o) (_read_r)
c:/siliconlabs/simplicitystudio/v4/developer/toolchains/gnu_arm/4.9_2015q3/bin/../lib/gcc/arm-none-eabi/4.9.3/../../../../arm-none-eabi/lib/armv7e-m/fpu\libc.a(lib_a-reent.o)
                              c:/siliconlabs/simplicitystudio/v4/developer/toolchains/gnu_arm/4.9_2015q3/bin/../lib/gcc/arm-none-eabi/4.9.3/../../../../arm-none-eabi/lib/armv7e-m/fpu\libc.a(lib_a-sbrkr.o) (errno)
c:/siliconlabs/simplicitystudio/v4/developer/toolchains/gnu_arm/4.9_2015q3/bin/../lib/gcc/arm-none-eabi/4.9.3/../../../../arm-none-eabi/lib/armv7e-m/fpu\libc.a(lib_a-wbuf.o)
                              c:/siliconlabs/simplicitystudio/v4/developer/toolchains/gnu_arm/4.9_2015q3/bin/../lib/gcc/arm-none-eabi/4.9.3/../../../../arm-none-eabi/lib/armv7e-m/fpu\libc.a(lib_a-fputwc.o) (__swbuf_r)
c:/siliconlabs/simplicitystudio/v4/developer/toolchains/gnu_arm/4.9_2015q3/bin/../lib/gcc/arm-none-eabi/4.9.3/../../../../arm-none-eabi/lib/armv7e-m/fpu\libc.a(lib_a-wcrtomb.o)
                              c:/siliconlabs/simplicitystudio/v4/developer/toolchains/gnu_arm/4.9_2015q3/bin/../lib/gcc/arm-none-eabi/4.9.3/../../../../arm-none-eabi/lib/armv7e-m/fpu\libc.a(lib_a-fputwc.o) (_wcrtomb_r)
c:/siliconlabs/simplicitystudio/v4/developer/toolchains/gnu_arm/4.9_2015q3/bin/../lib/gcc/arm-none-eabi/4.9.3/../../../../arm-none-eabi/lib/armv7e-m/fpu\libc.a(lib_a-wctomb_r.o)
                              c:/siliconlabs/simplicitystudio/v4/developer/toolchains/gnu_arm/4.9_2015q3/bin/../lib/gcc/arm-none-eabi/4.9.3/../../../../arm-none-eabi/lib/armv7e-m/fpu\libc.a(lib_a-wcrtomb.o) (__wctomb)

Allocating common symbols
Common symbol       size              file

bleDeviceId         0x2               ./app.o
errno               0x4               c:/siliconlabs/simplicitystudio/v4/developer/toolchains/gnu_arm/4.9_2015q3/bin/../lib/gcc/arm-none-eabi/4.9.3/../../../../arm-none-eabi/lib/armv7e-m/fpu\libc.a(lib_a-reent.o)
msg_sender          0x4               C:\Users\admin\SimplicityStudio\v4_workspace\soc-thunderboard-sense\protocol\bluetooth_2.6\lib\EFR32MG1P\GCC\bgapi.a(bgapi_test_lib.c.obj)
UTIL_supplyType     0x1               ./hardware/kit/common/bsp/thunderboard/util_supply.o
uiRGBLEDEnable      0x1               ./ui.o
sleepConfig         0x1               ./radio_ble.o
fuseObj             0x74              ./hardware/kit/common/bsp/thunderboard/imu/imu.o
iaqNotification     0x1               ./iaq.o
UTIL_supplyVoltage  0x4               ./hardware/kit/common/bsp/thunderboard/util_supply.o
UTIL_supplyIR       0x4               ./hardware/kit/common/bsp/thunderboard/util_supply.o
uiButtonState       0x1               ./ui.o
bleDeviceName       0x20              ./app.o
msTickCount         0x4               ./hardware/kit/common/bsp/thunderboard/util.o
bluetooth_stack_heap
                    0x1988            ./radio_ble.o

Discarded input sections

 .text          0x00000000        0x0 c:/siliconlabs/simplicitystudio/v4/developer/toolchains/gnu_arm/4.9_2015q3/bin/../lib/gcc/arm-none-eabi/4.9.3/armv7e-m/fpu/crti.o
 .data          0x00000000        0x0 c:/siliconlabs/simplicitystudio/v4/developer/toolchains/gnu_arm/4.9_2015q3/bin/../lib/gcc/arm-none-eabi/4.9.3/armv7e-m/fpu/crti.o
 .bss           0x00000000        0x0 c:/siliconlabs/simplicitystudio/v4/developer/toolchains/gnu_arm/4.9_2015q3/bin/../lib/gcc/arm-none-eabi/4.9.3/armv7e-m/fpu/crti.o
 .data          0x00000000        0x4 c:/siliconlabs/simplicitystudio/v4/developer/toolchains/gnu_arm/4.9_2015q3/bin/../lib/gcc/arm-none-eabi/4.9.3/armv7e-m/fpu/crtbegin.o
 .data          0x00000000        0x0 c:/siliconlabs/simplicitystudio/v4/developer/toolchains/gnu_arm/4.9_2015q3/bin/../lib/gcc/arm-none-eabi/4.9.3/../../../../arm-none-eabi/lib/armv7e-m/fpu/crt0.o
 .bss           0x00000000        0x0 c:/siliconlabs/simplicitystudio/v4/developer/toolchains/gnu_arm/4.9_2015q3/bin/../lib/gcc/arm-none-eabi/4.9.3/../../../../arm-none-eabi/lib/armv7e-m/fpu/crt0.o
 .ARM.extab     0x00000000        0x0 c:/siliconlabs/simplicitystudio/v4/developer/toolchains/gnu_arm/4.9_2015q3/bin/../lib/gcc/arm-none-eabi/4.9.3/../../../../arm-none-eabi/lib/armv7e-m/fpu/crt0.o
 .text          0x00000000        0x0 ./advertisement-callback.o
 .data          0x00000000        0x0 ./advertisement-callback.o
 .bss           0x00000000        0x0 ./advertisement-callback.o
 .text.advertisingStoppedCallback
                0x00000000        0xc ./advertisement-callback.o
 .text          0x00000000        0x0 ./aio.o
 .data          0x00000000        0x0 ./aio.o
 .bss           0x00000000        0x0 ./aio.o
 .text.aioInit  0x00000000        0x4 ./aio.o
 .text.aioConnectionOpened
                0x00000000        0x4 ./aio.o
 .text.aioConnectionClosed
                0x00000000        0xc ./aio.o
 .text          0x00000000        0x0 ./app.o
 .data          0x00000000        0x0 ./app.o
 .bss           0x00000000        0x0 ./app.o
 .text          0x00000000        0x0 ./app_ble.o
 .data          0x00000000        0x0 ./app_ble.o
 .bss           0x00000000        0x0 ./app_ble.o
 .text          0x00000000        0x0 ./app_ble_adv.o
 .data          0x00000000        0x0 ./app_ble_adv.o
 .bss           0x00000000        0x0 ./app_ble_adv.o
 .text.appBleDataConfig
                0x00000000       0x10 ./app_ble_adv.o
 .text          0x00000000        0x0 ./app_callback.o
 .data          0x00000000        0x0 ./app_callback.o
 .bss           0x00000000        0x0 ./app_callback.o
 .text          0x00000000        0x0 ./application_properties.o
 .data          0x00000000        0x0 ./application_properties.o
 .bss           0x00000000        0x0 ./application_properties.o
 .text          0x00000000        0x0 ./batt.o
 .data          0x00000000        0x0 ./batt.o
 .bss           0x00000000        0x0 ./batt.o
 .text          0x00000000        0x0 ./connection-callback.o
 .data          0x00000000        0x0 ./connection-callback.o
 .bss           0x00000000        0x0 ./connection-callback.o
 .text          0x00000000        0x0 ./connection.o
 .data          0x00000000        0x0 ./connection.o
 .bss           0x00000000        0x0 ./connection.o
 .text          0x00000000        0x0 ./es.o
 .data          0x00000000        0x0 ./es.o
 .bss           0x00000000        0x0 ./es.o
 .text.esInit   0x00000000        0x4 ./es.o
 .text.esReadControlPoint
                0x00000000       0x54 ./es.o
 .text.esControlPointStatusChange
                0x00000000       0x10 ./es.o
 .bss.cp.9904   0x00000000        0x4 ./es.o
 .text          0x00000000        0x0 ./gatt_db.o
 .data          0x00000000        0x0 ./gatt_db.o
 .bss           0x00000000        0x0 ./gatt_db.o
 .data.bg_gattdb
                0x00000000        0x4 ./gatt_db.o
 .text          0x00000000        0x0 ./iaq.o
 .data          0x00000000        0x0 ./iaq.o
 .bss           0x00000000        0x0 ./iaq.o
 .text.iaqInit  0x00000000        0xc ./iaq.o
 .text.iaqConnectionClosed
                0x00000000        0xc ./iaq.o
 .text.iaqConnectionOpened
                0x00000000        0x4 ./iaq.o
 .text.iaqReadControlPoint
                0x00000000       0x44 ./iaq.o
 .text.iaqControlPointStatusChange
                0x00000000       0x10 ./iaq.o
 COMMON         0x00000000        0x1 ./iaq.o
 .text          0x00000000        0x0 ./imus.o
 .data          0x00000000        0x0 ./imus.o
 .bss           0x00000000        0x0 ./imus.o
 .text.imuInit  0x00000000       0x50 ./imus.o
 .text.imuConnectionOpened
                0x00000000        0x4 ./imus.o
 .text.imuDeviceCalibrate
                0x00000000       0x1c ./imus.o
 .text          0x00000000        0x0 ./main.o
 .data          0x00000000        0x0 ./main.o
 .bss           0x00000000        0x0 ./main.o
 .text          0x00000000        0x0 ./power.o
 .data          0x00000000        0x0 ./power.o
 .bss           0x00000000        0x0 ./power.o
 .text.powerInit
                0x00000000        0x4 ./power.o
 .text.powerDeInit
                0x00000000        0x4 ./power.o
 .text          0x00000000        0x0 ./pti.o
 .data          0x00000000        0x0 ./pti.o
 .bss           0x00000000        0x0 ./pti.o
 .text.configEnablePti
                0x00000000       0x34 ./pti.o
 .rodata        0x00000000       0x24 ./pti.o
 .debug_info    0x00000000      0x2e4 ./pti.o
 .debug_abbrev  0x00000000      0x145 ./pti.o
 .debug_loc     0x00000000       0x56 ./pti.o
 .debug_aranges
                0x00000000       0x20 ./pti.o
 .debug_ranges  0x00000000       0x10 ./pti.o
 .debug_line    0x00000000      0x2f7 ./pti.o
 .debug_str     0x00000000      0x431 ./pti.o
 .comment       0x00000000       0x71 ./pti.o
 .debug_frame   0x00000000       0x30 ./pti.o
 .ARM.attributes
                0x00000000       0x39 ./pti.o
 .text          0x00000000        0x0 ./radio_ble.o
 .data          0x00000000        0x0 ./radio_ble.o
 .bss           0x00000000        0x0 ./radio_ble.o
 .text.RADIO_bleChipGetDCDCConfig
                0x00000000        0x8 ./radio_ble.o
 .text.RADIO_bleGetSleepConfig
                0x00000000        0x8 ./radio_ble.o
 .text          0x00000000        0x0 ./ui.o
 .data          0x00000000        0x0 ./ui.o
 .bss           0x00000000        0x0 ./ui.o
 .text.uiInit   0x00000000       0x1c ./ui.o
 .text          0x00000000        0x0 ./hardware/kit/common/bsp/bsp_stk.o
 .data          0x00000000        0x0 ./hardware/kit/common/bsp/bsp_stk.o
 .bss           0x00000000        0x0 ./hardware/kit/common/bsp/bsp_stk.o
 .text.BSP_Disable
                0x00000000        0xc ./hardware/kit/common/bsp/bsp_stk.o
 .text.BSP_EbiInit
                0x00000000        0x8 ./hardware/kit/common/bsp/bsp_stk.o
 .text.BSP_EbiDeInit
                0x00000000        0x8 ./hardware/kit/common/bsp/bsp_stk.o
 .text.BSP_IOExpGetDeviceId
                0x00000000        0x4 ./hardware/kit/common/bsp/bsp_stk.o
 .text.BSP_Init
                0x00000000       0x14 ./hardware/kit/common/bsp/bsp_stk.o
 .text.BSP_PeripheralAccess
                0x00000000        0x8 ./hardware/kit/common/bsp/bsp_stk.o
 .text.BSP_CurrentGet
                0x00000000       0x38 ./hardware/kit/common/bsp/bsp_stk.o
 .text.BSP_VoltageGet
                0x00000000       0x38 ./hardware/kit/common/bsp/bsp_stk.o
 .debug_info    0x00000000      0x37d ./hardware/kit/common/bsp/bsp_stk.o
 .debug_abbrev  0x00000000      0x1dc ./hardware/kit/common/bsp/bsp_stk.o
 .debug_loc     0x00000000      0x155 ./hardware/kit/common/bsp/bsp_stk.o
 .debug_aranges
                0x00000000       0x58 ./hardware/kit/common/bsp/bsp_stk.o
 .debug_ranges  0x00000000       0x48 ./hardware/kit/common/bsp/bsp_stk.o
 .debug_line    0x00000000      0x2b8 ./hardware/kit/common/bsp/bsp_stk.o
 .debug_str     0x00000000      0x3b2 ./hardware/kit/common/bsp/bsp_stk.o
 .comment       0x00000000       0x71 ./hardware/kit/common/bsp/bsp_stk.o
 .debug_frame   0x00000000       0xb8 ./hardware/kit/common/bsp/bsp_stk.o
 .ARM.attributes
                0x00000000       0x39 ./hardware/kit/common/bsp/bsp_stk.o
 .text          0x00000000        0x0 ./hardware/kit/common/bsp/thunderboard/bap.o
 .data          0x00000000        0x0 ./hardware/kit/common/bsp/thunderboard/bap.o
 .bss           0x00000000        0x0 ./hardware/kit/common/bsp/thunderboard/bap.o
 .text.BAP_config
                0x00000000       0x28 ./hardware/kit/common/bsp/thunderboard/bap.o
 .text.BAP_getTemperature
                0x00000000       0x54 ./hardware/kit/common/bsp/thunderboard/bap.o
 .text          0x00000000        0x0 ./hardware/kit/common/bsp/thunderboard/board_4160.o
 .data          0x00000000        0x0 ./hardware/kit/common/bsp/thunderboard/board_4160.o
 .bss           0x00000000        0x0 ./hardware/kit/common/bsp/thunderboard/board_4160.o
 .text.BOARD_pushButtonEnableIRQ
                0x00000000       0x2c ./hardware/kit/common/bsp/thunderboard/board_4160.o
 .text.BOARD_picIntClear
                0x00000000        0x8 ./hardware/kit/common/bsp/thunderboard/board_4160.o
 .text.BOARD_alsClearIRQ
                0x00000000       0x18 ./hardware/kit/common/bsp/thunderboard/board_4160.o
 .text.BOARD_gasSensorClearIRQ
                0x00000000       0x18 ./hardware/kit/common/bsp/thunderboard/board_4160.o
 .text.BOARD_picIntGet
                0x00000000        0x8 ./hardware/kit/common/bsp/thunderboard/board_4160.o
 .text.BOARD_rgbledPowerEnable
                0x00000000        0xc ./hardware/kit/common/bsp/thunderboard/board_4160.o
 .text.BOARD_alsEnableIRQ
                0x00000000        0xc ./hardware/kit/common/bsp/thunderboard/board_4160.o
 .text.BOARD_envSensEnableIRQ
                0x00000000        0xc ./hardware/kit/common/bsp/thunderboard/board_4160.o
 .text.BOARD_gasSensorEnableIRQ
                0x00000000        0xc ./hardware/kit/common/bsp/thunderboard/board_4160.o
 .text.BOARD_picIsLegacyIntCtrl
                0x00000000        0xc ./hardware/kit/common/bsp/thunderboard/board_4160.o
 .text.BOARD_gasSensorSetIRQCallback
                0x00000000       0x1c ./hardware/kit/common/bsp/thunderboard/board_4160.o
 .text.BOARD_alsSetIRQCallback
                0x00000000       0x1c ./hardware/kit/common/bsp/thunderboard/board_4160.o
 .text.BOARD_pushButton0SetIRQCallback
                0x00000000       0x1c ./hardware/kit/common/bsp/thunderboard/board_4160.o
 .text.BOARD_pushButton0ClearIRQ
                0x00000000       0x10 ./hardware/kit/common/bsp/thunderboard/board_4160.o
 .text.BOARD_pushButton1SetIRQCallback
                0x00000000       0x1c ./hardware/kit/common/bsp/thunderboard/board_4160.o
 .text.BOARD_pushButton1ClearIRQ
                0x00000000       0x10 ./hardware/kit/common/bsp/thunderboard/board_4160.o
 .text          0x00000000        0x0 ./hardware/kit/common/bsp/thunderboard/ccs811.o
 .data          0x00000000        0x0 ./hardware/kit/common/bsp/thunderboard/ccs811.o
 .bss           0x00000000        0x0 ./hardware/kit/common/bsp/thunderboard/ccs811.o
 .text.CCS811_getHardwareID
                0x00000000        0xc ./hardware/kit/common/bsp/thunderboard/ccs811.o
 .text.CCS811_getStatus
                0x00000000        0xc ./hardware/kit/common/bsp/thunderboard/ccs811.o
 .text.CCS811_dumpRegisters
                0x00000000      0x17c ./hardware/kit/common/bsp/thunderboard/ccs811.o
 .text.CCS811_getRawData
                0x00000000       0x7c ./hardware/kit/common/bsp/thunderboard/ccs811.o
 .text.CCS811_softwareReset
                0x00000000       0x78 ./hardware/kit/common/bsp/thunderboard/ccs811.o
 .rodata.str1.4
                0x00000000      0x15a ./hardware/kit/common/bsp/thunderboard/ccs811.o
 .text          0x00000000        0x0 ./hardware/kit/common/bsp/thunderboard/icm20648.o
 .data          0x00000000        0x0 ./hardware/kit/common/bsp/thunderboard/icm20648.o
 .bss           0x00000000        0x0 ./hardware/kit/common/bsp/thunderboard/icm20648.o
 .text.ICM20648_temperatureRead
                0x00000000       0x5c ./hardware/kit/common/bsp/thunderboard/icm20648.o
 .text.ICM20648_sampleRateSet
                0x00000000       0x20 ./hardware/kit/common/bsp/thunderboard/icm20648.o
 .text.ICM20648_cycleModeEnable
                0x00000000       0x14 ./hardware/kit/common/bsp/thunderboard/icm20648.o
 .text.ICM20648_wakeOnMotionITEnable
                0x00000000       0x9c ./hardware/kit/common/bsp/thunderboard/icm20648.o
 .text.ICM20648_accelGyroCalibrate
                0x00000000      0x3dc ./hardware/kit/common/bsp/thunderboard/icm20648.o
 .text          0x00000000        0x0 ./hardware/kit/common/bsp/thunderboard/mic.o
 .data          0x00000000        0x0 ./hardware/kit/common/bsp/thunderboard/mic.o
 .bss           0x00000000        0x0 ./hardware/kit/common/bsp/thunderboard/mic.o
 .text.MIC_getSampleBuffer
                0x00000000        0xc ./hardware/kit/common/bsp/thunderboard/mic.o
 .text.MIC_getMean
                0x00000000       0x4c ./hardware/kit/common/bsp/thunderboard/mic.o
 .text          0x00000000        0x0 ./hardware/kit/common/bsp/thunderboard/si1133.o
 .data          0x00000000        0x0 ./hardware/kit/common/bsp/thunderboard/si1133.o
 .bss           0x00000000        0x0 ./hardware/kit/common/bsp/thunderboard/si1133.o
 .text.SI1133_resetCmdCtr
                0x00000000        0x8 ./hardware/kit/common/bsp/thunderboard/si1133.o
 .text.SI1133_measurementStart
                0x00000000        0x8 ./hardware/kit/common/bsp/thunderboard/si1133.o
 .text.SI1133_paramRead
                0x00000000       0x2c ./hardware/kit/common/bsp/thunderboard/si1133.o
 .text.SI1133_measurementPause
                0x00000000        0x8 ./hardware/kit/common/bsp/thunderboard/si1133.o
 .text.SI1133_getUv
                0x00000000       0x1c ./hardware/kit/common/bsp/thunderboard/si1133.o
 .text.SI1133_measureLuxUvi
                0x00000000       0x98 ./hardware/kit/common/bsp/thunderboard/si1133.o
 .text.SI1133_getHardwareID
                0x00000000        0x8 ./hardware/kit/common/bsp/thunderboard/si1133.o
 .text          0x00000000        0x0 ./hardware/kit/common/bsp/thunderboard/si7021.o
 .data          0x00000000        0x0 ./hardware/kit/common/bsp/thunderboard/si7021.o
 .bss           0x00000000        0x0 ./hardware/kit/common/bsp/thunderboard/si7021.o
 .text.SI7021_getFwRev
                0x00000000       0x24 ./hardware/kit/common/bsp/thunderboard/si7021.o
 .text          0x00000000        0x0 ./hardware/kit/common/bsp/thunderboard/util.o
 .data          0x00000000        0x0 ./hardware/kit/common/bsp/thunderboard/util.o
 .bss           0x00000000        0x0 ./hardware/kit/common/bsp/thunderboard/util.o
 .text          0x00000000        0x0 ./hardware/kit/common/bsp/thunderboard/util_supply.o
 .data          0x00000000        0x0 ./hardware/kit/common/bsp/thunderboard/util_supply.o
 .bss           0x00000000        0x0 ./hardware/kit/common/bsp/thunderboard/util_supply.o
 .text          0x00000000        0x0 ./hardware/kit/common/bsp/thunderboard/bosch/BMP280_driver/bmp280.o
 .data          0x00000000        0x0 ./hardware/kit/common/bsp/thunderboard/bosch/BMP280_driver/bmp280.o
 .bss           0x00000000        0x0 ./hardware/kit/common/bsp/thunderboard/bosch/BMP280_driver/bmp280.o
 .text.bmp280_compensate_pressure_int32
                0x00000000       0xc0 ./hardware/kit/common/bsp/thunderboard/bosch/BMP280_driver/bmp280.o
 .text.bmp280_read_pressure_temperature
                0x00000000       0x3c ./hardware/kit/common/bsp/thunderboard/bosch/BMP280_driver/bmp280.o
 .text.bmp280_get_oversamp_temperature
                0x00000000       0x3c ./hardware/kit/common/bsp/thunderboard/bosch/BMP280_driver/bmp280.o
 .text.bmp280_set_oversamp_temperature
                0x00000000       0x54 ./hardware/kit/common/bsp/thunderboard/bosch/BMP280_driver/bmp280.o
 .text.bmp280_get_oversamp_pressure
                0x00000000       0x3c ./hardware/kit/common/bsp/thunderboard/bosch/BMP280_driver/bmp280.o
 .text.bmp280_set_oversamp_pressure
                0x00000000       0x58 ./hardware/kit/common/bsp/thunderboard/bosch/BMP280_driver/bmp280.o
 .text.bmp280_get_power_mode
                0x00000000       0x38 ./hardware/kit/common/bsp/thunderboard/bosch/BMP280_driver/bmp280.o
 .text.bmp280_set_soft_rst
                0x00000000       0x2c ./hardware/kit/common/bsp/thunderboard/bosch/BMP280_driver/bmp280.o
 .text.bmp280_get_spi3
                0x00000000       0x38 ./hardware/kit/common/bsp/thunderboard/bosch/BMP280_driver/bmp280.o
 .text.bmp280_set_spi3
                0x00000000       0x54 ./hardware/kit/common/bsp/thunderboard/bosch/BMP280_driver/bmp280.o
 .text.bmp280_get_filter
                0x00000000       0x38 ./hardware/kit/common/bsp/thunderboard/bosch/BMP280_driver/bmp280.o
 .text.bmp280_set_filter
                0x00000000       0x54 ./hardware/kit/common/bsp/thunderboard/bosch/BMP280_driver/bmp280.o
 .text.bmp280_get_standby_durn
                0x00000000       0x38 ./hardware/kit/common/bsp/thunderboard/bosch/BMP280_driver/bmp280.o
 .text.bmp280_set_standby_durn
                0x00000000       0x50 ./hardware/kit/common/bsp/thunderboard/bosch/BMP280_driver/bmp280.o
 .text.bmp280_write_register
                0x00000000       0x28 ./hardware/kit/common/bsp/thunderboard/bosch/BMP280_driver/bmp280.o
 .text.bmp280_read_register
                0x00000000       0x28 ./hardware/kit/common/bsp/thunderboard/bosch/BMP280_driver/bmp280.o
 .text.bmp280_compensate_temperature_double
                0x00000000       0xf8 ./hardware/kit/common/bsp/thunderboard/bosch/BMP280_driver/bmp280.o
 .text.bmp280_compensate_pressure_double
                0x00000000      0x244 ./hardware/kit/common/bsp/thunderboard/bosch/BMP280_driver/bmp280.o
 .text          0x00000000        0x0 ./hardware/kit/common/bsp/thunderboard/imu/imu.o
 .data          0x00000000        0x0 ./hardware/kit/common/bsp/thunderboard/imu/imu.o
 .bss           0x00000000        0x0 ./hardware/kit/common/bsp/thunderboard/imu/imu.o
 .text.IMU_gyroGet
                0x00000000       0x48 ./hardware/kit/common/bsp/thunderboard/imu/imu.o
 .text.IMU_reset
                0x00000000        0xc ./hardware/kit/common/bsp/thunderboard/imu/imu.o
 .text.IMU_getGyroCorrectionAngles
                0x00000000       0x14 ./hardware/kit/common/bsp/thunderboard/imu/imu.o
 .text          0x00000000        0x0 ./hardware/kit/common/bsp/thunderboard/imu/imu_dcm.o
 .data          0x00000000        0x0 ./hardware/kit/common/bsp/thunderboard/imu/imu_dcm.o
 .bss           0x00000000        0x0 ./hardware/kit/common/bsp/thunderboard/imu/imu_dcm.o
 .text.IMU_dcmResetZ
                0x00000000       0x3c ./hardware/kit/common/bsp/thunderboard/imu/imu_dcm.o
 .text          0x00000000        0x0 ./hardware/kit/common/bsp/thunderboard/imu/imu_fuse.o
 .data          0x00000000        0x0 ./hardware/kit/common/bsp/thunderboard/imu/imu_fuse.o
 .bss           0x00000000        0x0 ./hardware/kit/common/bsp/thunderboard/imu/imu_fuse.o
 .text.IMU_fuseAccelerometerUpdateFilter
                0x00000000       0x38 ./hardware/kit/common/bsp/thunderboard/imu/imu_fuse.o
 .text.IMU_fuseGyroCorrectionClear
                0x00000000        0x8 ./hardware/kit/common/bsp/thunderboard/imu/imu_fuse.o
 .text          0x00000000        0x0 ./hardware/kit/common/bsp/thunderboard/imu/imu_math.o
 .data          0x00000000        0x0 ./hardware/kit/common/bsp/thunderboard/imu/imu_math.o
 .bss           0x00000000        0x0 ./hardware/kit/common/bsp/thunderboard/imu/imu_math.o
 .text.IMU_normalizeAngle
                0x00000000       0xa0 ./hardware/kit/common/bsp/thunderboard/imu/imu_math.o
 .text          0x00000000        0x0 ./hardware/kit/common/bsp/thunderboard/rfs/rfs.o
 .data          0x00000000        0x0 ./hardware/kit/common/bsp/thunderboard/rfs/rfs.o
 .bss           0x00000000        0x0 ./hardware/kit/common/bsp/thunderboard/rfs/rfs.o
 .text.RFS_getFileCount
                0x00000000        0xc ./hardware/kit/common/bsp/thunderboard/rfs/rfs.o
 .text.RFS_getFileLengthByIndex
                0x00000000       0x1c ./hardware/kit/common/bsp/thunderboard/rfs/rfs.o
 .text.RFS_getFileLength
                0x00000000       0x20 ./hardware/kit/common/bsp/thunderboard/rfs/rfs.o
 .text.RFS_getFileNameByIndex
                0x00000000       0x1c ./hardware/kit/common/bsp/thunderboard/rfs/rfs.o
 .text.RFS_getFileName
                0x00000000       0x1c ./hardware/kit/common/bsp/thunderboard/rfs/rfs.o
 .text.RFS_getFileIndex
                0x00000000       0x44 ./hardware/kit/common/bsp/thunderboard/rfs/rfs.o
 .text.RFS_fileOpen
                0x00000000       0x18 ./hardware/kit/common/bsp/thunderboard/rfs/rfs.o
 .text.RFS_fileSeek
                0x00000000       0x50 ./hardware/kit/common/bsp/thunderboard/rfs/rfs.o
 .text.RFS_fileRead
                0x00000000       0x6c ./hardware/kit/common/bsp/thunderboard/rfs/rfs.o
 .text.RFS_fileGetRawData
                0x00000000       0x1c ./hardware/kit/common/bsp/thunderboard/rfs/rfs.o
 .debug_info    0x00000000      0x566 ./hardware/kit/common/bsp/thunderboard/rfs/rfs.o
 .debug_abbrev  0x00000000      0x22a ./hardware/kit/common/bsp/thunderboard/rfs/rfs.o
 .debug_loc     0x00000000      0x647 ./hardware/kit/common/bsp/thunderboard/rfs/rfs.o
 .debug_aranges
                0x00000000       0x68 ./hardware/kit/common/bsp/thunderboard/rfs/rfs.o
 .debug_ranges  0x00000000       0xb8 ./hardware/kit/common/bsp/thunderboard/rfs/rfs.o
 .debug_line    0x00000000      0x3f1 ./hardware/kit/common/bsp/thunderboard/rfs/rfs.o
 .debug_str     0x00000000      0x3d9 ./hardware/kit/common/bsp/thunderboard/rfs/rfs.o
 .comment       0x00000000       0x71 ./hardware/kit/common/bsp/thunderboard/rfs/rfs.o
 .debug_frame   0x00000000       0xe0 ./hardware/kit/common/bsp/thunderboard/rfs/rfs.o
 .ARM.attributes
                0x00000000       0x39 ./hardware/kit/common/bsp/thunderboard/rfs/rfs.o
 .text          0x00000000        0x0 ./hardware/kit/common/drivers/i2cspm.o
 .data          0x00000000        0x0 ./hardware/kit/common/drivers/i2cspm.o
 .bss           0x00000000        0x0 ./hardware/kit/common/drivers/i2cspm.o
 .text          0x00000000        0x0 ./hardware/kit/common/drivers/retargetio.o
 .data          0x00000000        0x0 ./hardware/kit/common/drivers/retargetio.o
 .bss           0x00000000        0x0 ./hardware/kit/common/drivers/retargetio.o
 .text._getpid  0x00000000        0x4 ./hardware/kit/common/drivers/retargetio.o
 .text._kill    0x00000000        0x8 ./hardware/kit/common/drivers/retargetio.o
 .text          0x00000000        0x0 ./hardware/kit/common/drivers/retargetserial.o
 .data          0x00000000        0x0 ./hardware/kit/common/drivers/retargetserial.o
 .bss           0x00000000        0x0 ./hardware/kit/common/drivers/retargetserial.o
 .text.RETARGET_SerialCrLf
                0x00000000       0x14 ./hardware/kit/common/drivers/retargetserial.o
 .text          0x00000000        0x0 ./platform/Device/SiliconLabs/EFR32MG1P/Source/GCC/startup_efr32mg1p.o
 .data          0x00000000        0x0 ./platform/Device/SiliconLabs/EFR32MG1P/Source/GCC/startup_efr32mg1p.o
 .bss           0x00000000        0x0 ./platform/Device/SiliconLabs/EFR32MG1P/Source/GCC/startup_efr32mg1p.o
 .text          0x00000000        0x0 ./platform/emdrv/dmadrv/src/dmadrv.o
 .data          0x00000000        0x0 ./platform/emdrv/dmadrv/src/dmadrv.o
 .bss           0x00000000        0x0 ./platform/emdrv/dmadrv/src/dmadrv.o
 .text.DMADRV_DeInit
                0x00000000       0x40 ./platform/emdrv/dmadrv/src/dmadrv.o
 .text.DMADRV_MemoryPeripheral
                0x00000000       0x34 ./platform/emdrv/dmadrv/src/dmadrv.o
 .text.DMADRV_MemoryPeripheralPingPong
                0x00000000       0x34 ./platform/emdrv/dmadrv/src/dmadrv.o
 .text.DMADRV_PeripheralMemoryPingPong
                0x00000000       0x34 ./platform/emdrv/dmadrv/src/dmadrv.o
 .text.DMADRV_PauseTransfer
                0x00000000       0x44 ./platform/emdrv/dmadrv/src/dmadrv.o
 .text.DMADRV_ResumeTransfer
                0x00000000       0x44 ./platform/emdrv/dmadrv/src/dmadrv.o
 .text.DMADRV_StopTransfer
                0x00000000       0x44 ./platform/emdrv/dmadrv/src/dmadrv.o
 .text.DMADRV_TransferActive
                0x00000000       0x60 ./platform/emdrv/dmadrv/src/dmadrv.o
 .text.DMADRV_TransferCompletePending
                0x00000000       0x60 ./platform/emdrv/dmadrv/src/dmadrv.o
 .text.DMADRV_TransferDone
                0x00000000       0x50 ./platform/emdrv/dmadrv/src/dmadrv.o
 .text.DMADRV_TransferRemainingCount
                0x00000000       0x50 ./platform/emdrv/dmadrv/src/dmadrv.o
 .rodata.p2m    0x00000000       0x10 ./platform/emdrv/dmadrv/src/dmadrv.o
 .rodata.m2p    0x00000000       0x10 ./platform/emdrv/dmadrv/src/dmadrv.o
 .rodata.xferCfg
                0x00000000       0x10 ./platform/emdrv/dmadrv/src/dmadrv.o
 .text          0x00000000        0x0 ./platform/emdrv/gpiointerrupt/src/gpiointerrupt.o
 .data          0x00000000        0x0 ./platform/emdrv/gpiointerrupt/src/gpiointerrupt.o
 .bss           0x00000000        0x0 ./platform/emdrv/gpiointerrupt/src/gpiointerrupt.o
 .text          0x00000000        0x0 ./platform/emlib/src/em_adc.o
 .data          0x00000000        0x0 ./platform/emlib/src/em_adc.o
 .bss           0x00000000        0x0 ./platform/emlib/src/em_adc.o
 .text.ADC_ScanDifferentialInputAdd
                0x00000000       0xb4 ./platform/emlib/src/em_adc.o
 .text.ADC_DataIdScanGet
                0x00000000        0xc ./platform/emlib/src/em_adc.o
 .text.ADC_Reset
                0x00000000       0x64 ./platform/emlib/src/em_adc.o
 .rodata.CSWTCH.20
                0x00000000       0x14 ./platform/emlib/src/em_adc.o
 .rodata.CSWTCH.19
                0x00000000       0x14 ./platform/emlib/src/em_adc.o
 .text          0x00000000        0x0 ./platform/emlib/src/em_cmu.o
 .data          0x00000000        0x0 ./platform/emlib/src/em_cmu.o
 .bss           0x00000000        0x0 ./platform/emlib/src/em_cmu.o
 .text.CMU_UpdateWaitStates
                0x00000000        0x4 ./platform/emlib/src/em_cmu.o
 .text.CMU_AUXHFRCOBandGet
                0x00000000        0xc ./platform/emlib/src/em_cmu.o
 .text.CMU_AUXHFRCOBandSet
                0x00000000      0x104 ./platform/emlib/src/em_cmu.o
 .text.CMU_Calibrate
                0x00000000       0x58 ./platform/emlib/src/em_cmu.o
 .text.CMU_CalibrateConfig
                0x00000000       0x7c ./platform/emlib/src/em_cmu.o
 .text.CMU_CalibrateCountGet
                0x00000000       0x20 ./platform/emlib/src/em_cmu.o
 .text.CMU_ClockPrescGet
                0x00000000       0x94 ./platform/emlib/src/em_cmu.o
 .text.CMU_ClockDivGet
                0x00000000        0xc ./platform/emlib/src/em_cmu.o
 .text.CMU_ClockPrescSet
                0x00000000      0x1ec ./platform/emlib/src/em_cmu.o
 .text.CMU_ClockDivSet
                0x00000000        0x8 ./platform/emlib/src/em_cmu.o
 .text.CMU_FreezeEnable
                0x00000000       0x24 ./platform/emlib/src/em_cmu.o
 .text.CMU_HFRCOBandGet
                0x00000000        0xc ./platform/emlib/src/em_cmu.o
 .text.CMU_HFRCOBandSet
                0x00000000      0x1b4 ./platform/emlib/src/em_cmu.o
 .text.CMU_HFXOAutostartEnable
                0x00000000       0x74 ./platform/emlib/src/em_cmu.o
 .text.CMU_LCDClkFDIVGet
                0x00000000        0x4 ./platform/emlib/src/em_cmu.o
 .text.CMU_LCDClkFDIVSet
                0x00000000        0x4 ./platform/emlib/src/em_cmu.o
 .text.CMU_OscillatorTuningGet
                0x00000000       0x40 ./platform/emlib/src/em_cmu.o
 .text.CMU_OscillatorTuningSet
                0x00000000       0x78 ./platform/emlib/src/em_cmu.o
 .text.CMU_OscillatorTuningOptimize
                0x00000000       0x24 ./platform/emlib/src/em_cmu.o
 .text.CMU_PCNTClockExternalGet
                0x00000000       0x18 ./platform/emlib/src/em_cmu.o
 .text.CMU_PCNTClockExternalSet
                0x00000000       0x10 ./platform/emlib/src/em_cmu.o
 .text          0x00000000        0x0 ./platform/emlib/src/em_cryotimer.o
 .data          0x00000000        0x0 ./platform/emlib/src/em_cryotimer.o
 .bss           0x00000000        0x0 ./platform/emlib/src/em_cryotimer.o
 .text.CRYOTIMER_Init
                0x00000000       0x34 ./platform/emlib/src/em_cryotimer.o
 .debug_info    0x00000000      0x3d5 ./platform/emlib/src/em_cryotimer.o
 .debug_abbrev  0x00000000      0x173 ./platform/emlib/src/em_cryotimer.o
 .debug_loc     0x00000000       0x64 ./platform/emlib/src/em_cryotimer.o
 .debug_aranges
                0x00000000       0x20 ./platform/emlib/src/em_cryotimer.o
 .debug_ranges  0x00000000       0x40 ./platform/emlib/src/em_cryotimer.o
 .debug_line    0x00000000      0x2d1 ./platform/emlib/src/em_cryotimer.o
 .debug_str     0x00000000      0x679 ./platform/emlib/src/em_cryotimer.o
 .comment       0x00000000       0x71 ./platform/emlib/src/em_cryotimer.o
 .debug_frame   0x00000000       0x34 ./platform/emlib/src/em_cryotimer.o
 .ARM.attributes
                0x00000000       0x39 ./platform/emlib/src/em_cryotimer.o
 .text          0x00000000        0x0 ./platform/emlib/src/em_gpio.o
 .data          0x00000000        0x0 ./platform/emlib/src/em_gpio.o
 .bss           0x00000000        0x0 ./platform/emlib/src/em_gpio.o
 .text.GPIO_DbgLocationSet
                0x00000000        0x4 ./platform/emlib/src/em_gpio.o
 .text.GPIO_DriveStrengthSet
                0x00000000       0x20 ./platform/emlib/src/em_gpio.o
 .text.GPIO_PinModeGet
                0x00000000       0x30 ./platform/emlib/src/em_gpio.o
 .text          0x00000000        0x0 ./platform/emlib/src/em_i2c.o
 .data          0x00000000        0x0 ./platform/emlib/src/em_i2c.o
 .bss           0x00000000        0x0 ./platform/emlib/src/em_i2c.o
 .text.I2C_BusFreqGet
                0x00000000       0x2c ./platform/emlib/src/em_i2c.o
 .text.I2C_BusFreqSet
                0x00000000        0x8 ./platform/emlib/src/em_i2c.o
 .text.I2C_Enable
                0x00000000        0xc ./platform/emlib/src/em_i2c.o
 .text.I2C_Reset
                0x00000000       0x18 ./platform/emlib/src/em_i2c.o
 .text          0x00000000        0x0 ./platform/emlib/src/em_ldma.o
 .data          0x00000000        0x0 ./platform/emlib/src/em_ldma.o
 .bss           0x00000000        0x0 ./platform/emlib/src/em_ldma.o
 .text.LDMA_DeInit
                0x00000000       0x2c ./platform/emlib/src/em_ldma.o
 .text.LDMA_EnableChannelRequest
                0x00000000       0x14 ./platform/emlib/src/em_ldma.o
 .text.LDMA_StopTransfer
                0x00000000       0x28 ./platform/emlib/src/em_ldma.o
 .text.LDMA_TransferDone
                0x00000000       0x34 ./platform/emlib/src/em_ldma.o
 .text.LDMA_TransferRemainingCount
                0x00000000       0x40 ./platform/emlib/src/em_ldma.o
 .text          0x00000000        0x0 ./platform/emlib/src/em_letimer.o
 .data          0x00000000        0x0 ./platform/emlib/src/em_letimer.o
 .bss           0x00000000        0x0 ./platform/emlib/src/em_letimer.o
 .text.LETIMER_CompareGet
                0x00000000       0x14 ./platform/emlib/src/em_letimer.o
 .text.LETIMER_CompareSet
                0x00000000       0x14 ./platform/emlib/src/em_letimer.o
 .text.LETIMER_Enable
                0x00000000       0x10 ./platform/emlib/src/em_letimer.o
 .text.LETIMER_Init
                0x00000000       0x60 ./platform/emlib/src/em_letimer.o
 .text.LETIMER_RepeatGet
                0x00000000       0x14 ./platform/emlib/src/em_letimer.o
 .text.LETIMER_RepeatSet
                0x00000000       0x14 ./platform/emlib/src/em_letimer.o
 .text.LETIMER_Reset
                0x00000000       0x18 ./platform/emlib/src/em_letimer.o
 .debug_info    0x00000000      0x501 ./platform/emlib/src/em_letimer.o
 .debug_abbrev  0x00000000      0x1c1 ./platform/emlib/src/em_letimer.o
 .debug_loc     0x00000000      0x2ab ./platform/emlib/src/em_letimer.o
 .debug_aranges
                0x00000000       0x50 ./platform/emlib/src/em_letimer.o
 .debug_ranges  0x00000000       0x40 ./platform/emlib/src/em_letimer.o
 .debug_line    0x00000000      0x36a ./platform/emlib/src/em_letimer.o
 .debug_str     0x00000000      0x468 ./platform/emlib/src/em_letimer.o
 .comment       0x00000000       0x71 ./platform/emlib/src/em_letimer.o
 .debug_frame   0x00000000       0x90 ./platform/emlib/src/em_letimer.o
 .ARM.attributes
                0x00000000       0x39 ./platform/emlib/src/em_letimer.o
 .text          0x00000000        0x0 ./platform/emlib/src/em_leuart.o
 .data          0x00000000        0x0 ./platform/emlib/src/em_leuart.o
 .bss           0x00000000        0x0 ./platform/emlib/src/em_leuart.o
 .text.LEUART_BaudrateCalc
                0x00000000       0x20 ./platform/emlib/src/em_leuart.o
 .text.LEUART_BaudrateGet
                0x00000000       0x40 ./platform/emlib/src/em_leuart.o
 .text.LEUART_BaudrateSet
                0x00000000       0x54 ./platform/emlib/src/em_leuart.o
 .text.LEUART_Enable
                0x00000000       0x1c ./platform/emlib/src/em_leuart.o
 .text.LEUART_FreezeEnable
                0x00000000       0x14 ./platform/emlib/src/em_leuart.o
 .text.LEUART_Init
                0x00000000       0x4c ./platform/emlib/src/em_leuart.o
 .text.LEUART_Reset
                0x00000000       0x30 ./platform/emlib/src/em_leuart.o
 .text.LEUART_Rx
                0x00000000        0xc ./platform/emlib/src/em_leuart.o
 .text.LEUART_RxExt
                0x00000000        0xc ./platform/emlib/src/em_leuart.o
 .text.LEUART_Tx
                0x00000000       0x18 ./platform/emlib/src/em_leuart.o
 .text.LEUART_TxExt
                0x00000000       0x18 ./platform/emlib/src/em_leuart.o
 .text.LEUART_TxDmaInEM2Enable
                0x00000000       0x28 ./platform/emlib/src/em_leuart.o
 .text.LEUART_RxDmaInEM2Enable
                0x00000000       0x28 ./platform/emlib/src/em_leuart.o
 .debug_info    0x00000000      0xa6b ./platform/emlib/src/em_leuart.o
 .debug_abbrev  0x00000000      0x302 ./platform/emlib/src/em_leuart.o
 .debug_loc     0x00000000      0x46f ./platform/emlib/src/em_leuart.o
 .debug_aranges
                0x00000000       0x80 ./platform/emlib/src/em_leuart.o
 .debug_ranges  0x00000000      0x120 ./platform/emlib/src/em_leuart.o
 .debug_line    0x00000000      0x474 ./platform/emlib/src/em_leuart.o
 .debug_str     0x00000000      0x750 ./platform/emlib/src/em_leuart.o
 .comment       0x00000000       0x71 ./platform/emlib/src/em_leuart.o
 .debug_frame   0x00000000      0x11c ./platform/emlib/src/em_leuart.o
 .ARM.attributes
                0x00000000       0x39 ./platform/emlib/src/em_leuart.o
 .text          0x00000000        0x0 ./platform/emlib/src/em_msc.o
 .data          0x00000000        0x0 ./platform/emlib/src/em_msc.o
 .bss           0x00000000        0x0 ./platform/emlib/src/em_msc.o
 .ram           0x00000000      0x24c ./platform/emlib/src/em_msc.o
 .text.MSC_Init
                0x00000000       0x18 ./platform/emlib/src/em_msc.o
 .text.MSC_Deinit
                0x00000000       0x14 ./platform/emlib/src/em_msc.o
 .text.MSC_ExecConfigSet
                0x00000000       0x70 ./platform/emlib/src/em_msc.o
 .debug_info    0x00000000      0x7f8 ./platform/emlib/src/em_msc.o
 .debug_abbrev  0x00000000      0x2bf ./platform/emlib/src/em_msc.o
 .debug_loc     0x00000000      0x682 ./platform/emlib/src/em_msc.o
 .debug_aranges
                0x00000000       0x70 ./platform/emlib/src/em_msc.o
 .debug_ranges  0x00000000       0x98 ./platform/emlib/src/em_msc.o
 .debug_line    0x00000000      0x43b ./platform/emlib/src/em_msc.o
 .debug_str     0x00000000      0x54a ./platform/emlib/src/em_msc.o
 .comment       0x00000000       0x71 ./platform/emlib/src/em_msc.o
 .debug_frame   0x00000000      0x10c ./platform/emlib/src/em_msc.o
 .ARM.attributes
                0x00000000       0x39 ./platform/emlib/src/em_msc.o
 .text          0x00000000        0x0 ./platform/emlib/src/em_prs.o
 .data          0x00000000        0x0 ./platform/emlib/src/em_prs.o
 .bss           0x00000000        0x0 ./platform/emlib/src/em_prs.o
 .text.PRS_SourceSignalSet
                0x00000000       0x1c ./platform/emlib/src/em_prs.o
 .text          0x00000000        0x0 ./platform/emlib/src/em_rtcc.o
 .data          0x00000000        0x0 ./platform/emlib/src/em_rtcc.o
 .bss           0x00000000        0x0 ./platform/emlib/src/em_rtcc.o
 .text.RTCC_ChannelInit
                0x00000000       0x38 ./platform/emlib/src/em_rtcc.o
 .text.RTCC_Enable
                0x00000000        0xc ./platform/emlib/src/em_rtcc.o
 .text.RTCC_Init
                0x00000000       0x48 ./platform/emlib/src/em_rtcc.o
 .text.RTCC_Reset
                0x00000000       0x58 ./platform/emlib/src/em_rtcc.o
 .text.RTCC_StatusClear
                0x00000000       0x14 ./platform/emlib/src/em_rtcc.o
 .debug_info    0x00000000      0x6f0 ./platform/emlib/src/em_rtcc.o
 .debug_abbrev  0x00000000      0x1e4 ./platform/emlib/src/em_rtcc.o
 .debug_loc     0x00000000       0xdc ./platform/emlib/src/em_rtcc.o
 .debug_aranges
                0x00000000       0x40 ./platform/emlib/src/em_rtcc.o
 .debug_ranges  0x00000000       0x70 ./platform/emlib/src/em_rtcc.o
 .debug_line    0x00000000      0x3a2 ./platform/emlib/src/em_rtcc.o
 .debug_str     0x00000000      0x80d ./platform/emlib/src/em_rtcc.o
 .comment       0x00000000       0x71 ./platform/emlib/src/em_rtcc.o
 .debug_frame   0x00000000       0x8c ./platform/emlib/src/em_rtcc.o
 .ARM.attributes
                0x00000000       0x39 ./platform/emlib/src/em_rtcc.o
 .text          0x00000000        0x0 ./platform/emlib/src/em_system.o
 .data          0x00000000        0x0 ./platform/emlib/src/em_system.o
 .bss           0x00000000        0x0 ./platform/emlib/src/em_system.o
 .text.SYSTEM_GetCalibrationValue
                0x00000000       0x28 ./platform/emlib/src/em_system.o
 .text          0x00000000        0x0 ./platform/emlib/src/em_timer.o
 .data          0x00000000        0x0 ./platform/emlib/src/em_timer.o
 .bss           0x00000000        0x0 ./platform/emlib/src/em_timer.o
 .text.TIMER_InitDTI
                0x00000000      0x114 ./platform/emlib/src/em_timer.o
 .text.TIMER_Reset
                0x00000000       0x58 ./platform/emlib/src/em_timer.o
 .text          0x00000000        0x0 ./platform/emlib/src/em_usart.o
 .data          0x00000000        0x0 ./platform/emlib/src/em_usart.o
 .bss           0x00000000        0x0 ./platform/emlib/src/em_usart.o
 .text.USART_BaudrateCalc
                0x00000000       0x7c ./platform/emlib/src/em_usart.o
 .text.USART_BaudrateGet
                0x00000000       0x24 ./platform/emlib/src/em_usart.o
 .text.USARTn_InitIrDA
                0x00000000       0x48 ./platform/emlib/src/em_usart.o
 .text.USART_InitI2s
                0x00000000       0x5c ./platform/emlib/src/em_usart.o
 .text.USART_InitPrsTrigger
                0x00000000       0x2c ./platform/emlib/src/em_usart.o
 .text.USART_RxDouble
                0x00000000        0xc ./platform/emlib/src/em_usart.o
 .text.USART_RxDoubleExt
                0x00000000        0xc ./platform/emlib/src/em_usart.o
 .text.USART_RxExt
                0x00000000        0xc ./platform/emlib/src/em_usart.o
 .text.USART_TxDouble
                0x00000000        0xc ./platform/emlib/src/em_usart.o
 .text.USART_TxDoubleExt
                0x00000000        0xc ./platform/emlib/src/em_usart.o
 .text.USART_TxExt
                0x00000000        0xc ./platform/emlib/src/em_usart.o
 .text          0x00000000        0x0 C:\Users\admin\SimplicityStudio\v4_workspace\soc-thunderboard-sense\protocol\bluetooth_2.6\lib\EFR32MG1P\EABI\binstack.o
 .data          0x00000000        0x0 C:\Users\admin\SimplicityStudio\v4_workspace\soc-thunderboard-sense\protocol\bluetooth_2.6\lib\EFR32MG1P\EABI\binstack.o
 .bss           0x00000000        0x0 C:\Users\admin\SimplicityStudio\v4_workspace\soc-thunderboard-sense\protocol\bluetooth_2.6\lib\EFR32MG1P\EABI\binstack.o
 .comment       0x00000000       0x6d C:\Users\admin\SimplicityStudio\v4_workspace\soc-thunderboard-sense\protocol\bluetooth_2.6\lib\EFR32MG1P\EABI\stack.a
 .text          0x00000000        0x0 C:\Users\admin\SimplicityStudio\v4_workspace\soc-thunderboard-sense\protocol\bluetooth_2.6\lib\EFR32MG1P\EABI\binbootloader.o
 .data          0x00000000        0x0 C:\Users\admin\SimplicityStudio\v4_workspace\soc-thunderboard-sense\protocol\bluetooth_2.6\lib\EFR32MG1P\EABI\binbootloader.o
 .bss           0x00000000        0x0 C:\Users\admin\SimplicityStudio\v4_workspace\soc-thunderboard-sense\protocol\bluetooth_2.6\lib\EFR32MG1P\EABI\binbootloader.o
 .data          0x00000000        0x0 C:\Users\admin\SimplicityStudio\v4_workspace\soc-thunderboard-sense\protocol\bluetooth_2.6\lib\EFR32MG1P\GCC\bgapi.a(gecko_bgapi_hardware.c.obj)
 .bss           0x00000000        0x0 C:\Users\admin\SimplicityStudio\v4_workspace\soc-thunderboard-sense\protocol\bluetooth_2.6\lib\EFR32MG1P\GCC\bgapi.a(gecko_bgapi_hardware.c.obj)
 .data          0x00000000        0x0 C:\Users\admin\SimplicityStudio\v4_workspace\soc-thunderboard-sense\protocol\bluetooth_2.6\lib\EFR32MG1P\GCC\bgapi.a(gecko_bgapi_test.c.obj)
 .bss           0x00000000        0x0 C:\Users\admin\SimplicityStudio\v4_workspace\soc-thunderboard-sense\protocol\bluetooth_2.6\lib\EFR32MG1P\GCC\bgapi.a(gecko_bgapi_test.c.obj)
 .data          0x00000000        0x0 C:\Users\admin\SimplicityStudio\v4_workspace\soc-thunderboard-sense\protocol\bluetooth_2.6\lib\EFR32MG1P\GCC\bgapi.a(gecko_bgapi_dfu.c.obj)
 .bss           0x00000000        0x0 C:\Users\admin\SimplicityStudio\v4_workspace\soc-thunderboard-sense\protocol\bluetooth_2.6\lib\EFR32MG1P\GCC\bgapi.a(gecko_bgapi_dfu.c.obj)
 .data          0x00000000        0x0 C:\Users\admin\SimplicityStudio\v4_workspace\soc-thunderboard-sense\protocol\bluetooth_2.6\lib\EFR32MG1P\GCC\bgapi.a(gecko_bgapi_gap.c.obj)
 .bss           0x00000000        0x0 C:\Users\admin\SimplicityStudio\v4_workspace\soc-thunderboard-sense\protocol\bluetooth_2.6\lib\EFR32MG1P\GCC\bgapi.a(gecko_bgapi_gap.c.obj)
 .data          0x00000000        0x0 C:\Users\admin\SimplicityStudio\v4_workspace\soc-thunderboard-sense\protocol\bluetooth_2.6\lib\EFR32MG1P\GCC\bgapi.a(gecko_bgapi_gatt.c.obj)
 .bss           0x00000000        0x0 C:\Users\admin\SimplicityStudio\v4_workspace\soc-thunderboard-sense\protocol\bluetooth_2.6\lib\EFR32MG1P\GCC\bgapi.a(gecko_bgapi_gatt.c.obj)
 .data          0x00000000        0x0 C:\Users\admin\SimplicityStudio\v4_workspace\soc-thunderboard-sense\protocol\bluetooth_2.6\lib\EFR32MG1P\GCC\bgapi.a(gecko_bgapi_gatt_server.c.obj)
 .bss           0x00000000        0x0 C:\Users\admin\SimplicityStudio\v4_workspace\soc-thunderboard-sense\protocol\bluetooth_2.6\lib\EFR32MG1P\GCC\bgapi.a(gecko_bgapi_gatt_server.c.obj)
 .data          0x00000000        0x0 C:\Users\admin\SimplicityStudio\v4_workspace\soc-thunderboard-sense\protocol\bluetooth_2.6\lib\EFR32MG1P\GCC\bgapi.a(gecko_bgapi_flash.c.obj)
 .bss           0x00000000        0x0 C:\Users\admin\SimplicityStudio\v4_workspace\soc-thunderboard-sense\protocol\bluetooth_2.6\lib\EFR32MG1P\GCC\bgapi.a(gecko_bgapi_flash.c.obj)
 .data          0x00000000        0x0 C:\Users\admin\SimplicityStudio\v4_workspace\soc-thunderboard-sense\protocol\bluetooth_2.6\lib\EFR32MG1P\GCC\bgapi.a(gecko_bgapi_sm.c.obj)
 .bss           0x00000000        0x0 C:\Users\admin\SimplicityStudio\v4_workspace\soc-thunderboard-sense\protocol\bluetooth_2.6\lib\EFR32MG1P\GCC\bgapi.a(gecko_bgapi_sm.c.obj)
 .data          0x00000000        0x0 C:\Users\admin\SimplicityStudio\v4_workspace\soc-thunderboard-sense\protocol\bluetooth_2.6\lib\EFR32MG1P\GCC\bgapi.a(gecko_bgapi_system.c.obj)
 .bss           0x00000000        0x0 C:\Users\admin\SimplicityStudio\v4_workspace\soc-thunderboard-sense\protocol\bluetooth_2.6\lib\EFR32MG1P\GCC\bgapi.a(gecko_bgapi_system.c.obj)
 .data          0x00000000        0x0 C:\Users\admin\SimplicityStudio\v4_workspace\soc-thunderboard-sense\protocol\bluetooth_2.6\lib\EFR32MG1P\GCC\bgapi.a(gecko_bgapi_endpoint.c.obj)
 .bss           0x00000000        0x0 C:\Users\admin\SimplicityStudio\v4_workspace\soc-thunderboard-sense\protocol\bluetooth_2.6\lib\EFR32MG1P\GCC\bgapi.a(gecko_bgapi_endpoint.c.obj)
 .data          0x00000000        0x0 C:\Users\admin\SimplicityStudio\v4_workspace\soc-thunderboard-sense\protocol\bluetooth_2.6\lib\EFR32MG1P\GCC\bgapi.a(gecko_bgapi_le_connection.c.obj)
 .bss           0x00000000        0x0 C:\Users\admin\SimplicityStudio\v4_workspace\soc-thunderboard-sense\protocol\bluetooth_2.6\lib\EFR32MG1P\GCC\bgapi.a(gecko_bgapi_le_connection.c.obj)
 .data          0x00000000        0x0 C:\Users\admin\SimplicityStudio\v4_workspace\soc-thunderboard-sense\protocol\bluetooth_2.6\lib\EFR32MG1P\GCC\bgapi.a(bgapi_hardware.c.obj)
 .data          0x00000000        0x0 C:\Users\admin\SimplicityStudio\v4_workspace\soc-thunderboard-sense\protocol\bluetooth_2.6\lib\EFR32MG1P\GCC\bgapi.a(bgapi_test_lib.c.obj)
 .data          0x00000000        0x0 C:\Users\admin\SimplicityStudio\v4_workspace\soc-thunderboard-sense\protocol\bluetooth_2.6\lib\EFR32MG1P\GCC\bgapi.a(bgapi_dfu.c.obj)
 .bss           0x00000000        0x0 C:\Users\admin\SimplicityStudio\v4_workspace\soc-thunderboard-sense\protocol\bluetooth_2.6\lib\EFR32MG1P\GCC\bgapi.a(bgapi_dfu.c.obj)
 .data          0x00000000        0x0 C:\Users\admin\SimplicityStudio\v4_workspace\soc-thunderboard-sense\protocol\bluetooth_2.6\lib\EFR32MG1P\GCC\bgapi.a(bgapi_gap.c.obj)
 .data          0x00000000        0x0 C:\Users\admin\SimplicityStudio\v4_workspace\soc-thunderboard-sense\protocol\bluetooth_2.6\lib\EFR32MG1P\GCC\bgapi.a(bgapi_gatt_lib.c.obj)
 .bss           0x00000000        0x0 C:\Users\admin\SimplicityStudio\v4_workspace\soc-thunderboard-sense\protocol\bluetooth_2.6\lib\EFR32MG1P\GCC\bgapi.a(bgapi_gatt_lib.c.obj)
 .data          0x00000000        0x0 C:\Users\admin\SimplicityStudio\v4_workspace\soc-thunderboard-sense\protocol\bluetooth_2.6\lib\EFR32MG1P\GCC\bgapi.a(bgapi_ps.c.obj)
 .data          0x00000000        0x0 C:\Users\admin\SimplicityStudio\v4_workspace\soc-thunderboard-sense\protocol\bluetooth_2.6\lib\EFR32MG1P\GCC\bgapi.a(bgapi_sm.c.obj)
 .data          0x00000000        0x0 C:\Users\admin\SimplicityStudio\v4_workspace\soc-thunderboard-sense\protocol\bluetooth_2.6\lib\EFR32MG1P\GCC\bgapi.a(bgapi_system.c.obj)
 .data          0x00000000        0x0 C:\Users\admin\SimplicityStudio\v4_workspace\soc-thunderboard-sense\protocol\bluetooth_2.6\lib\EFR32MG1P\GCC\bgapi.a(bgapi_endpoint.c.obj)
 .bss           0x00000000        0x0 C:\Users\admin\SimplicityStudio\v4_workspace\soc-thunderboard-sense\protocol\bluetooth_2.6\lib\EFR32MG1P\GCC\bgapi.a(bgapi_endpoint.c.obj)
 .data          0x00000000        0x0 C:\Users\admin\SimplicityStudio\v4_workspace\soc-thunderboard-sense\protocol\bluetooth_2.6\lib\EFR32MG1P\GCC\bgapi.a(bgapi_le_connection.c.obj)
 .bss           0x00000000        0x0 C:\Users\admin\SimplicityStudio\v4_workspace\soc-thunderboard-sense\protocol\bluetooth_2.6\lib\EFR32MG1P\GCC\bgapi.a(bgapi_le_connection.c.obj)
 .data          0x00000000        0x0 C:\Users\admin\SimplicityStudio\v4_workspace\soc-thunderboard-sense\protocol\bluetooth_2.6\lib\EFR32MG1P\GCC\bgapi.a(gatt_client.c.obj)
 .bss           0x00000000        0x0 C:\Users\admin\SimplicityStudio\v4_workspace\soc-thunderboard-sense\protocol\bluetooth_2.6\lib\EFR32MG1P\GCC\bgapi.a(gatt_client.c.obj)
 .data          0x00000000        0x0 C:\Users\admin\SimplicityStudio\v4_workspace\soc-thunderboard-sense\protocol\bluetooth_2.6\lib\EFR32MG1P\GCC\bgapi.a(ubt_gatt_client.c.obj)
 .bss           0x00000000        0x0 C:\Users\admin\SimplicityStudio\v4_workspace\soc-thunderboard-sense\protocol\bluetooth_2.6\lib\EFR32MG1P\GCC\bgapi.a(ubt_gatt_client.c.obj)
 .data          0x00000000        0x0 C:\Users\admin\SimplicityStudio\v4_workspace\soc-thunderboard-sense\protocol\bluetooth_2.6\lib\EFR32MG1P\GCC\bgapi.a(att_client.c.obj)
 .bss           0x00000000        0x0 C:\Users\admin\SimplicityStudio\v4_workspace\soc-thunderboard-sense\protocol\bluetooth_2.6\lib\EFR32MG1P\GCC\bgapi.a(att_client.c.obj)
 .text          0x00000000        0x0 c:/siliconlabs/simplicitystudio/v4/developer/toolchains/gnu_arm/4.9_2015q3/bin/../lib/gcc/arm-none-eabi/4.9.3/../../../../arm-none-eabi/lib/armv7e-m/fpu\libm.a(lib_a-wf_asin.o)
 .data          0x00000000        0x0 c:/siliconlabs/simplicitystudio/v4/developer/toolchains/gnu_arm/4.9_2015q3/bin/../lib/gcc/arm-none-eabi/4.9.3/../../../../arm-none-eabi/lib/armv7e-m/fpu\libm.a(lib_a-wf_asin.o)
 .bss           0x00000000        0x0 c:/siliconlabs/simplicitystudio/v4/developer/toolchains/gnu_arm/4.9_2015q3/bin/../lib/gcc/arm-none-eabi/4.9.3/../../../../arm-none-eabi/lib/armv7e-m/fpu\libm.a(lib_a-wf_asin.o)
 .text          0x00000000        0x0 c:/siliconlabs/simplicitystudio/v4/developer/toolchains/gnu_arm/4.9_2015q3/bin/../lib/gcc/arm-none-eabi/4.9.3/../../../../arm-none-eabi/lib/armv7e-m/fpu\libm.a(lib_a-wf_atan2.o)
 .data          0x00000000        0x0 c:/siliconlabs/simplicitystudio/v4/developer/toolchains/gnu_arm/4.9_2015q3/bin/../lib/gcc/arm-none-eabi/4.9.3/../../../../arm-none-eabi/lib/armv7e-m/fpu\libm.a(lib_a-wf_atan2.o)
 .bss           0x00000000        0x0 c:/siliconlabs/simplicitystudio/v4/developer/toolchains/gnu_arm/4.9_2015q3/bin/../lib/gcc/arm-none-eabi/4.9.3/../../../../arm-none-eabi/lib/armv7e-m/fpu\libm.a(lib_a-wf_atan2.o)
 .text          0x00000000        0x0 c:/siliconlabs/simplicitystudio/v4/developer/toolchains/gnu_arm/4.9_2015q3/bin/../lib/gcc/arm-none-eabi/4.9.3/../../../../arm-none-eabi/lib/armv7e-m/fpu\libm.a(lib_a-wf_log10.o)
 .data          0x00000000        0x0 c:/siliconlabs/simplicitystudio/v4/developer/toolchains/gnu_arm/4.9_2015q3/bin/../lib/gcc/arm-none-eabi/4.9.3/../../../../arm-none-eabi/lib/armv7e-m/fpu\libm.a(lib_a-wf_log10.o)
 .bss           0x00000000        0x0 c:/siliconlabs/simplicitystudio/v4/developer/toolchains/gnu_arm/4.9_2015q3/bin/../lib/gcc/arm-none-eabi/4.9.3/../../../../arm-none-eabi/lib/armv7e-m/fpu\libm.a(lib_a-wf_log10.o)
 .text          0x00000000        0x0 c:/siliconlabs/simplicitystudio/v4/developer/toolchains/gnu_arm/4.9_2015q3/bin/../lib/gcc/arm-none-eabi/4.9.3/../../../../arm-none-eabi/lib/armv7e-m/fpu\libm.a(lib_a-ef_asin.o)
 .data          0x00000000        0x0 c:/siliconlabs/simplicitystudio/v4/developer/toolchains/gnu_arm/4.9_2015q3/bin/../lib/gcc/arm-none-eabi/4.9.3/../../../../arm-none-eabi/lib/armv7e-m/fpu\libm.a(lib_a-ef_asin.o)
 .bss           0x00000000        0x0 c:/siliconlabs/simplicitystudio/v4/developer/toolchains/gnu_arm/4.9_2015q3/bin/../lib/gcc/arm-none-eabi/4.9.3/../../../../arm-none-eabi/lib/armv7e-m/fpu\libm.a(lib_a-ef_asin.o)
 .text          0x00000000        0x0 c:/siliconlabs/simplicitystudio/v4/developer/toolchains/gnu_arm/4.9_2015q3/bin/../lib/gcc/arm-none-eabi/4.9.3/../../../../arm-none-eabi/lib/armv7e-m/fpu\libm.a(lib_a-ef_atan2.o)
 .data          0x00000000        0x0 c:/siliconlabs/simplicitystudio/v4/developer/toolchains/gnu_arm/4.9_2015q3/bin/../lib/gcc/arm-none-eabi/4.9.3/../../../../arm-none-eabi/lib/armv7e-m/fpu\libm.a(lib_a-ef_atan2.o)
 .bss           0x00000000        0x0 c:/siliconlabs/simplicitystudio/v4/developer/toolchains/gnu_arm/4.9_2015q3/bin/../lib/gcc/arm-none-eabi/4.9.3/../../../../arm-none-eabi/lib/armv7e-m/fpu\libm.a(lib_a-ef_atan2.o)
 .text          0x00000000        0x0 c:/siliconlabs/simplicitystudio/v4/developer/toolchains/gnu_arm/4.9_2015q3/bin/../lib/gcc/arm-none-eabi/4.9.3/../../../../arm-none-eabi/lib/armv7e-m/fpu\libm.a(lib_a-ef_log10.o)
 .data          0x00000000        0x0 c:/siliconlabs/simplicitystudio/v4/developer/toolchains/gnu_arm/4.9_2015q3/bin/../lib/gcc/arm-none-eabi/4.9.3/../../../../arm-none-eabi/lib/armv7e-m/fpu\libm.a(lib_a-ef_log10.o)
 .bss           0x00000000        0x0 c:/siliconlabs/simplicitystudio/v4/developer/toolchains/gnu_arm/4.9_2015q3/bin/../lib/gcc/arm-none-eabi/4.9.3/../../../../arm-none-eabi/lib/armv7e-m/fpu\libm.a(lib_a-ef_log10.o)
 .text          0x00000000        0x0 c:/siliconlabs/simplicitystudio/v4/developer/toolchains/gnu_arm/4.9_2015q3/bin/../lib/gcc/arm-none-eabi/4.9.3/../../../../arm-none-eabi/lib/armv7e-m/fpu\libm.a(lib_a-ef_sqrt.o)
 .data          0x00000000        0x0 c:/siliconlabs/simplicitystudio/v4/developer/toolchains/gnu_arm/4.9_2015q3/bin/../lib/gcc/arm-none-eabi/4.9.3/../../../../arm-none-eabi/lib/armv7e-m/fpu\libm.a(lib_a-ef_sqrt.o)
 .bss           0x00000000        0x0 c:/siliconlabs/simplicitystudio/v4/developer/toolchains/gnu_arm/4.9_2015q3/bin/../lib/gcc/arm-none-eabi/4.9.3/../../../../arm-none-eabi/lib/armv7e-m/fpu\libm.a(lib_a-ef_sqrt.o)
 .text          0x00000000        0x0 c:/siliconlabs/simplicitystudio/v4/developer/toolchains/gnu_arm/4.9_2015q3/bin/../lib/gcc/arm-none-eabi/4.9.3/../../../../arm-none-eabi/lib/armv7e-m/fpu\libm.a(lib_a-s_lib_ver.o)
 .data          0x00000000        0x0 c:/siliconlabs/simplicitystudio/v4/developer/toolchains/gnu_arm/4.9_2015q3/bin/../lib/gcc/arm-none-eabi/4.9.3/../../../../arm-none-eabi/lib/armv7e-m/fpu\libm.a(lib_a-s_lib_ver.o)
 .bss           0x00000000        0x0 c:/siliconlabs/simplicitystudio/v4/developer/toolchains/gnu_arm/4.9_2015q3/bin/../lib/gcc/arm-none-eabi/4.9.3/../../../../arm-none-eabi/lib/armv7e-m/fpu\libm.a(lib_a-s_lib_ver.o)
 .text          0x00000000        0x0 c:/siliconlabs/simplicitystudio/v4/developer/toolchains/gnu_arm/4.9_2015q3/bin/../lib/gcc/arm-none-eabi/4.9.3/../../../../arm-none-eabi/lib/armv7e-m/fpu\libm.a(lib_a-s_matherr.o)
 .data          0x00000000        0x0 c:/siliconlabs/simplicitystudio/v4/developer/toolchains/gnu_arm/4.9_2015q3/bin/../lib/gcc/arm-none-eabi/4.9.3/../../../../arm-none-eabi/lib/armv7e-m/fpu\libm.a(lib_a-s_matherr.o)
 .bss           0x00000000        0x0 c:/siliconlabs/simplicitystudio/v4/developer/toolchains/gnu_arm/4.9_2015q3/bin/../lib/gcc/arm-none-eabi/4.9.3/../../../../arm-none-eabi/lib/armv7e-m/fpu\libm.a(lib_a-s_matherr.o)
 .text          0x00000000        0x0 c:/siliconlabs/simplicitystudio/v4/developer/toolchains/gnu_arm/4.9_2015q3/bin/../lib/gcc/arm-none-eabi/4.9.3/../../../../arm-none-eabi/lib/armv7e-m/fpu\libm.a(lib_a-s_nan.o)
 .data          0x00000000        0x0 c:/siliconlabs/simplicitystudio/v4/developer/toolchains/gnu_arm/4.9_2015q3/bin/../lib/gcc/arm-none-eabi/4.9.3/../../../../arm-none-eabi/lib/armv7e-m/fpu\libm.a(lib_a-s_nan.o)
 .bss           0x00000000        0x0 c:/siliconlabs/simplicitystudio/v4/developer/toolchains/gnu_arm/4.9_2015q3/bin/../lib/gcc/arm-none-eabi/4.9.3/../../../../arm-none-eabi/lib/armv7e-m/fpu\libm.a(lib_a-s_nan.o)
 .text          0x00000000        0x0 c:/siliconlabs/simplicitystudio/v4/developer/toolchains/gnu_arm/4.9_2015q3/bin/../lib/gcc/arm-none-eabi/4.9.3/../../../../arm-none-eabi/lib/armv7e-m/fpu\libm.a(lib_a-sf_atan.o)
 .data          0x00000000        0x0 c:/siliconlabs/simplicitystudio/v4/developer/toolchains/gnu_arm/4.9_2015q3/bin/../lib/gcc/arm-none-eabi/4.9.3/../../../../arm-none-eabi/lib/armv7e-m/fpu\libm.a(lib_a-sf_atan.o)
 .bss           0x00000000        0x0 c:/siliconlabs/simplicitystudio/v4/developer/toolchains/gnu_arm/4.9_2015q3/bin/../lib/gcc/arm-none-eabi/4.9.3/../../../../arm-none-eabi/lib/armv7e-m/fpu\libm.a(lib_a-sf_atan.o)
 .text          0x00000000        0x0 c:/siliconlabs/simplicitystudio/v4/developer/toolchains/gnu_arm/4.9_2015q3/bin/../lib/gcc/arm-none-eabi/4.9.3/../../../../arm-none-eabi/lib/armv7e-m/fpu\libm.a(lib_a-sf_fabs.o)
 .data          0x00000000        0x0 c:/siliconlabs/simplicitystudio/v4/developer/toolchains/gnu_arm/4.9_2015q3/bin/../lib/gcc/arm-none-eabi/4.9.3/../../../../arm-none-eabi/lib/armv7e-m/fpu\libm.a(lib_a-sf_fabs.o)
 .bss           0x00000000        0x0 c:/siliconlabs/simplicitystudio/v4/developer/toolchains/gnu_arm/4.9_2015q3/bin/../lib/gcc/arm-none-eabi/4.9.3/../../../../arm-none-eabi/lib/armv7e-m/fpu\libm.a(lib_a-sf_fabs.o)
 .text          0x00000000        0x0 c:/siliconlabs/simplicitystudio/v4/developer/toolchains/gnu_arm/4.9_2015q3/bin/../lib/gcc/arm-none-eabi/4.9.3/../../../../arm-none-eabi/lib/armv7e-m/fpu\libm.a(lib_a-sf_fpclassify.o)
 .data          0x00000000        0x0 c:/siliconlabs/simplicitystudio/v4/developer/toolchains/gnu_arm/4.9_2015q3/bin/../lib/gcc/arm-none-eabi/4.9.3/../../../../arm-none-eabi/lib/armv7e-m/fpu\libm.a(lib_a-sf_fpclassify.o)
 .bss           0x00000000        0x0 c:/siliconlabs/simplicitystudio/v4/developer/toolchains/gnu_arm/4.9_2015q3/bin/../lib/gcc/arm-none-eabi/4.9.3/../../../../arm-none-eabi/lib/armv7e-m/fpu\libm.a(lib_a-sf_fpclassify.o)
 .text          0x00000000        0x0 c:/siliconlabs/simplicitystudio/v4/developer/toolchains/gnu_arm/4.9_2015q3/bin/../lib/gcc/arm-none-eabi/4.9.3/../../../../arm-none-eabi/lib/armv7e-m/fpu\libm.a(lib_a-ef_log.o)
 .data          0x00000000        0x0 c:/siliconlabs/simplicitystudio/v4/developer/toolchains/gnu_arm/4.9_2015q3/bin/../lib/gcc/arm-none-eabi/4.9.3/../../../../arm-none-eabi/lib/armv7e-m/fpu\libm.a(lib_a-ef_log.o)
 .bss           0x00000000        0x0 c:/siliconlabs/simplicitystudio/v4/developer/toolchains/gnu_arm/4.9_2015q3/bin/../lib/gcc/arm-none-eabi/4.9.3/../../../../arm-none-eabi/lib/armv7e-m/fpu\libm.a(lib_a-ef_log.o)
 .data          0x00000000        0x0 c:/siliconlabs/simplicitystudio/v4/developer/toolchains/gnu_arm/4.9_2015q3/bin/../lib/gcc/arm-none-eabi/4.9.3/armv7e-m/fpu\libgcc.a(_arm_addsubdf3.o)
 .bss           0x00000000        0x0 c:/siliconlabs/simplicitystudio/v4/developer/toolchains/gnu_arm/4.9_2015q3/bin/../lib/gcc/arm-none-eabi/4.9.3/armv7e-m/fpu\libgcc.a(_arm_addsubdf3.o)
 .data          0x00000000        0x0 c:/siliconlabs/simplicitystudio/v4/developer/toolchains/gnu_arm/4.9_2015q3/bin/../lib/gcc/arm-none-eabi/4.9.3/armv7e-m/fpu\libgcc.a(_arm_muldivdf3.o)
 .bss           0x00000000        0x0 c:/siliconlabs/simplicitystudio/v4/developer/toolchains/gnu_arm/4.9_2015q3/bin/../lib/gcc/arm-none-eabi/4.9.3/armv7e-m/fpu\libgcc.a(_arm_muldivdf3.o)
 .data          0x00000000        0x0 c:/siliconlabs/simplicitystudio/v4/developer/toolchains/gnu_arm/4.9_2015q3/bin/../lib/gcc/arm-none-eabi/4.9.3/armv7e-m/fpu\libgcc.a(_arm_cmpdf2.o)
 .bss           0x00000000        0x0 c:/siliconlabs/simplicitystudio/v4/developer/toolchains/gnu_arm/4.9_2015q3/bin/../lib/gcc/arm-none-eabi/4.9.3/armv7e-m/fpu\libgcc.a(_arm_cmpdf2.o)
 .text          0x00000000       0x2c c:/siliconlabs/simplicitystudio/v4/developer/toolchains/gnu_arm/4.9_2015q3/bin/../lib/gcc/arm-none-eabi/4.9.3/armv7e-m/fpu\libgcc.a(_arm_unorddf2.o)
 .data          0x00000000        0x0 c:/siliconlabs/simplicitystudio/v4/developer/toolchains/gnu_arm/4.9_2015q3/bin/../lib/gcc/arm-none-eabi/4.9.3/armv7e-m/fpu\libgcc.a(_arm_unorddf2.o)
 .bss           0x00000000        0x0 c:/siliconlabs/simplicitystudio/v4/developer/toolchains/gnu_arm/4.9_2015q3/bin/../lib/gcc/arm-none-eabi/4.9.3/armv7e-m/fpu\libgcc.a(_arm_unorddf2.o)
 .ARM.attributes
                0x00000000       0x22 c:/siliconlabs/simplicitystudio/v4/developer/toolchains/gnu_arm/4.9_2015q3/bin/../lib/gcc/arm-none-eabi/4.9.3/armv7e-m/fpu\libgcc.a(_arm_unorddf2.o)
 .data          0x00000000        0x0 c:/siliconlabs/simplicitystudio/v4/developer/toolchains/gnu_arm/4.9_2015q3/bin/../lib/gcc/arm-none-eabi/4.9.3/armv7e-m/fpu\libgcc.a(_arm_fixdfsi.o)
 .bss           0x00000000        0x0 c:/siliconlabs/simplicitystudio/v4/developer/toolchains/gnu_arm/4.9_2015q3/bin/../lib/gcc/arm-none-eabi/4.9.3/armv7e-m/fpu\libgcc.a(_arm_fixdfsi.o)
 .data          0x00000000        0x0 c:/siliconlabs/simplicitystudio/v4/developer/toolchains/gnu_arm/4.9_2015q3/bin/../lib/gcc/arm-none-eabi/4.9.3/armv7e-m/fpu\libgcc.a(_arm_truncdfsf2.o)
 .bss           0x00000000        0x0 c:/siliconlabs/simplicitystudio/v4/developer/toolchains/gnu_arm/4.9_2015q3/bin/../lib/gcc/arm-none-eabi/4.9.3/armv7e-m/fpu\libgcc.a(_arm_truncdfsf2.o)
 .data          0x00000000        0x0 c:/siliconlabs/simplicitystudio/v4/developer/toolchains/gnu_arm/4.9_2015q3/bin/../lib/gcc/arm-none-eabi/4.9.3/armv7e-m/fpu\libgcc.a(_aeabi_ldivmod.o)
 .bss           0x00000000        0x0 c:/siliconlabs/simplicitystudio/v4/developer/toolchains/gnu_arm/4.9_2015q3/bin/../lib/gcc/arm-none-eabi/4.9.3/armv7e-m/fpu\libgcc.a(_aeabi_ldivmod.o)
 .data          0x00000000        0x0 c:/siliconlabs/simplicitystudio/v4/developer/toolchains/gnu_arm/4.9_2015q3/bin/../lib/gcc/arm-none-eabi/4.9.3/armv7e-m/fpu\libgcc.a(_aeabi_uldivmod.o)
 .bss           0x00000000        0x0 c:/siliconlabs/simplicitystudio/v4/developer/toolchains/gnu_arm/4.9_2015q3/bin/../lib/gcc/arm-none-eabi/4.9.3/armv7e-m/fpu\libgcc.a(_aeabi_uldivmod.o)
 .data          0x00000000        0x0 c:/siliconlabs/simplicitystudio/v4/developer/toolchains/gnu_arm/4.9_2015q3/bin/../lib/gcc/arm-none-eabi/4.9.3/armv7e-m/fpu\libgcc.a(bpabi.o)
 .bss           0x00000000        0x0 c:/siliconlabs/simplicitystudio/v4/developer/toolchains/gnu_arm/4.9_2015q3/bin/../lib/gcc/arm-none-eabi/4.9.3/armv7e-m/fpu\libgcc.a(bpabi.o)
 .data          0x00000000        0x0 c:/siliconlabs/simplicitystudio/v4/developer/toolchains/gnu_arm/4.9_2015q3/bin/../lib/gcc/arm-none-eabi/4.9.3/armv7e-m/fpu\libgcc.a(_dvmd_tls.o)
 .bss           0x00000000        0x0 c:/siliconlabs/simplicitystudio/v4/developer/toolchains/gnu_arm/4.9_2015q3/bin/../lib/gcc/arm-none-eabi/4.9.3/armv7e-m/fpu\libgcc.a(_dvmd_tls.o)
 .data          0x00000000        0x0 c:/siliconlabs/simplicitystudio/v4/developer/toolchains/gnu_arm/4.9_2015q3/bin/../lib/gcc/arm-none-eabi/4.9.3/armv7e-m/fpu\libgcc.a(_divdi3.o)
 .bss           0x00000000        0x0 c:/siliconlabs/simplicitystudio/v4/developer/toolchains/gnu_arm/4.9_2015q3/bin/../lib/gcc/arm-none-eabi/4.9.3/armv7e-m/fpu\libgcc.a(_divdi3.o)
 .ARM.extab     0x00000000        0x0 c:/siliconlabs/simplicitystudio/v4/developer/toolchains/gnu_arm/4.9_2015q3/bin/../lib/gcc/arm-none-eabi/4.9.3/armv7e-m/fpu\libgcc.a(_divdi3.o)
 .data          0x00000000        0x0 c:/siliconlabs/simplicitystudio/v4/developer/toolchains/gnu_arm/4.9_2015q3/bin/../lib/gcc/arm-none-eabi/4.9.3/armv7e-m/fpu\libgcc.a(_udivdi3.o)
 .bss           0x00000000        0x0 c:/siliconlabs/simplicitystudio/v4/developer/toolchains/gnu_arm/4.9_2015q3/bin/../lib/gcc/arm-none-eabi/4.9.3/armv7e-m/fpu\libgcc.a(_udivdi3.o)
 .ARM.extab     0x00000000        0x0 c:/siliconlabs/simplicitystudio/v4/developer/toolchains/gnu_arm/4.9_2015q3/bin/../lib/gcc/arm-none-eabi/4.9.3/armv7e-m/fpu\libgcc.a(_udivdi3.o)
 .text          0x00000000        0x0 c:/siliconlabs/simplicitystudio/v4/developer/toolchains/gnu_arm/4.9_2015q3/bin/../lib/gcc/arm-none-eabi/4.9.3/../../../../arm-none-eabi/lib/armv7e-m/fpu\libc.a(lib_a-errno.o)
 .data          0x00000000        0x0 c:/siliconlabs/simplicitystudio/v4/developer/toolchains/gnu_arm/4.9_2015q3/bin/../lib/gcc/arm-none-eabi/4.9.3/../../../../arm-none-eabi/lib/armv7e-m/fpu\libc.a(lib_a-errno.o)
 .bss           0x00000000        0x0 c:/siliconlabs/simplicitystudio/v4/developer/toolchains/gnu_arm/4.9_2015q3/bin/../lib/gcc/arm-none-eabi/4.9.3/../../../../arm-none-eabi/lib/armv7e-m/fpu\libc.a(lib_a-errno.o)
 .text          0x00000000        0x0 c:/siliconlabs/simplicitystudio/v4/developer/toolchains/gnu_arm/4.9_2015q3/bin/../lib/gcc/arm-none-eabi/4.9.3/../../../../arm-none-eabi/lib/armv7e-m/fpu\libc.a(lib_a-exit.o)
 .data          0x00000000        0x0 c:/siliconlabs/simplicitystudio/v4/developer/toolchains/gnu_arm/4.9_2015q3/bin/../lib/gcc/arm-none-eabi/4.9.3/../../../../arm-none-eabi/lib/armv7e-m/fpu\libc.a(lib_a-exit.o)
 .bss           0x00000000        0x0 c:/siliconlabs/simplicitystudio/v4/developer/toolchains/gnu_arm/4.9_2015q3/bin/../lib/gcc/arm-none-eabi/4.9.3/../../../../arm-none-eabi/lib/armv7e-m/fpu\libc.a(lib_a-exit.o)
 .text          0x00000000        0x0 c:/siliconlabs/simplicitystudio/v4/developer/toolchains/gnu_arm/4.9_2015q3/bin/../lib/gcc/arm-none-eabi/4.9.3/../../../../arm-none-eabi/lib/armv7e-m/fpu\libc.a(lib_a-impure.o)
 .data          0x00000000        0x0 c:/siliconlabs/simplicitystudio/v4/developer/toolchains/gnu_arm/4.9_2015q3/bin/../lib/gcc/arm-none-eabi/4.9.3/../../../../arm-none-eabi/lib/armv7e-m/fpu\libc.a(lib_a-impure.o)
 .bss           0x00000000        0x0 c:/siliconlabs/simplicitystudio/v4/developer/toolchains/gnu_arm/4.9_2015q3/bin/../lib/gcc/arm-none-eabi/4.9.3/../../../../arm-none-eabi/lib/armv7e-m/fpu\libc.a(lib_a-impure.o)
 .text          0x00000000        0x0 c:/siliconlabs/simplicitystudio/v4/developer/toolchains/gnu_arm/4.9_2015q3/bin/../lib/gcc/arm-none-eabi/4.9.3/../../../../arm-none-eabi/lib/armv7e-m/fpu\libc.a(lib_a-init.o)
 .data          0x00000000        0x0 c:/siliconlabs/simplicitystudio/v4/developer/toolchains/gnu_arm/4.9_2015q3/bin/../lib/gcc/arm-none-eabi/4.9.3/../../../../arm-none-eabi/lib/armv7e-m/fpu\libc.a(lib_a-init.o)
 .bss           0x00000000        0x0 c:/siliconlabs/simplicitystudio/v4/developer/toolchains/gnu_arm/4.9_2015q3/bin/../lib/gcc/arm-none-eabi/4.9.3/../../../../arm-none-eabi/lib/armv7e-m/fpu\libc.a(lib_a-init.o)
 .data          0x00000000        0x0 c:/siliconlabs/simplicitystudio/v4/developer/toolchains/gnu_arm/4.9_2015q3/bin/../lib/gcc/arm-none-eabi/4.9.3/../../../../arm-none-eabi/lib/armv7e-m/fpu\libc.a(lib_a-memcpy.o)
 .bss           0x00000000        0x0 c:/siliconlabs/simplicitystudio/v4/developer/toolchains/gnu_arm/4.9_2015q3/bin/../lib/gcc/arm-none-eabi/4.9.3/../../../../arm-none-eabi/lib/armv7e-m/fpu\libc.a(lib_a-memcpy.o)
 .text          0x00000000        0x0 c:/siliconlabs/simplicitystudio/v4/developer/toolchains/gnu_arm/4.9_2015q3/bin/../lib/gcc/arm-none-eabi/4.9.3/../../../../arm-none-eabi/lib/armv7e-m/fpu\libc.a(lib_a-memset.o)
 .data          0x00000000        0x0 c:/siliconlabs/simplicitystudio/v4/developer/toolchains/gnu_arm/4.9_2015q3/bin/../lib/gcc/arm-none-eabi/4.9.3/../../../../arm-none-eabi/lib/armv7e-m/fpu\libc.a(lib_a-memset.o)
 .bss           0x00000000        0x0 c:/siliconlabs/simplicitystudio/v4/developer/toolchains/gnu_arm/4.9_2015q3/bin/../lib/gcc/arm-none-eabi/4.9.3/../../../../arm-none-eabi/lib/armv7e-m/fpu\libc.a(lib_a-memset.o)
 .text          0x00000000        0x0 c:/siliconlabs/simplicitystudio/v4/developer/toolchains/gnu_arm/4.9_2015q3/bin/../lib/gcc/arm-none-eabi/4.9.3/../../../../arm-none-eabi/lib/armv7e-m/fpu\libc.a(lib_a-printf.o)
 .data          0x00000000        0x0 c:/siliconlabs/simplicitystudio/v4/developer/toolchains/gnu_arm/4.9_2015q3/bin/../lib/gcc/arm-none-eabi/4.9.3/../../../../arm-none-eabi/lib/armv7e-m/fpu\libc.a(lib_a-printf.o)
 .bss           0x00000000        0x0 c:/siliconlabs/simplicitystudio/v4/developer/toolchains/gnu_arm/4.9_2015q3/bin/../lib/gcc/arm-none-eabi/4.9.3/../../../../arm-none-eabi/lib/armv7e-m/fpu\libc.a(lib_a-printf.o)
 .text._printf_r
                0x00000000       0x20 c:/siliconlabs/simplicitystudio/v4/developer/toolchains/gnu_arm/4.9_2015q3/bin/../lib/gcc/arm-none-eabi/4.9.3/../../../../arm-none-eabi/lib/armv7e-m/fpu\libc.a(lib_a-printf.o)
 .text          0x00000000        0x0 c:/siliconlabs/simplicitystudio/v4/developer/toolchains/gnu_arm/4.9_2015q3/bin/../lib/gcc/arm-none-eabi/4.9.3/../../../../arm-none-eabi/lib/armv7e-m/fpu\libc.a(lib_a-puts.o)
 .data          0x00000000        0x0 c:/siliconlabs/simplicitystudio/v4/developer/toolchains/gnu_arm/4.9_2015q3/bin/../lib/gcc/arm-none-eabi/4.9.3/../../../../arm-none-eabi/lib/armv7e-m/fpu\libc.a(lib_a-puts.o)
 .bss           0x00000000        0x0 c:/siliconlabs/simplicitystudio/v4/developer/toolchains/gnu_arm/4.9_2015q3/bin/../lib/gcc/arm-none-eabi/4.9.3/../../../../arm-none-eabi/lib/armv7e-m/fpu\libc.a(lib_a-puts.o)
 .text          0x00000000        0x0 c:/siliconlabs/simplicitystudio/v4/developer/toolchains/gnu_arm/4.9_2015q3/bin/../lib/gcc/arm-none-eabi/4.9.3/../../../../arm-none-eabi/lib/armv7e-m/fpu\libc.a(lib_a-setvbuf.o)
 .data          0x00000000        0x0 c:/siliconlabs/simplicitystudio/v4/developer/toolchains/gnu_arm/4.9_2015q3/bin/../lib/gcc/arm-none-eabi/4.9.3/../../../../arm-none-eabi/lib/armv7e-m/fpu\libc.a(lib_a-setvbuf.o)
 .bss           0x00000000        0x0 c:/siliconlabs/simplicitystudio/v4/developer/toolchains/gnu_arm/4.9_2015q3/bin/../lib/gcc/arm-none-eabi/4.9.3/../../../../arm-none-eabi/lib/armv7e-m/fpu\libc.a(lib_a-setvbuf.o)
 .text          0x00000000        0x0 c:/siliconlabs/simplicitystudio/v4/developer/toolchains/gnu_arm/4.9_2015q3/bin/../lib/gcc/arm-none-eabi/4.9.3/../../../../arm-none-eabi/lib/armv7e-m/fpu\libc.a(lib_a-snprintf.o)
 .data          0x00000000        0x0 c:/siliconlabs/simplicitystudio/v4/developer/toolchains/gnu_arm/4.9_2015q3/bin/../lib/gcc/arm-none-eabi/4.9.3/../../../../arm-none-eabi/lib/armv7e-m/fpu\libc.a(lib_a-snprintf.o)
 .bss           0x00000000        0x0 c:/siliconlabs/simplicitystudio/v4/developer/toolchains/gnu_arm/4.9_2015q3/bin/../lib/gcc/arm-none-eabi/4.9.3/../../../../arm-none-eabi/lib/armv7e-m/fpu\libc.a(lib_a-snprintf.o)
 .text._snprintf_r
                0x00000000       0x90 c:/siliconlabs/simplicitystudio/v4/developer/toolchains/gnu_arm/4.9_2015q3/bin/../lib/gcc/arm-none-eabi/4.9.3/../../../../arm-none-eabi/lib/armv7e-m/fpu\libc.a(lib_a-snprintf.o)
 .text          0x00000000        0x0 c:/siliconlabs/simplicitystudio/v4/developer/toolchains/gnu_arm/4.9_2015q3/bin/../lib/gcc/arm-none-eabi/4.9.3/../../../../arm-none-eabi/lib/armv7e-m/fpu\libc.a(lib_a-sprintf.o)
 .data          0x00000000        0x0 c:/siliconlabs/simplicitystudio/v4/developer/toolchains/gnu_arm/4.9_2015q3/bin/../lib/gcc/arm-none-eabi/4.9.3/../../../../arm-none-eabi/lib/armv7e-m/fpu\libc.a(lib_a-sprintf.o)
 .bss           0x00000000        0x0 c:/siliconlabs/simplicitystudio/v4/developer/toolchains/gnu_arm/4.9_2015q3/bin/../lib/gcc/arm-none-eabi/4.9.3/../../../../arm-none-eabi/lib/armv7e-m/fpu\libc.a(lib_a-sprintf.o)
 .text._sprintf_r
                0x00000000       0x44 c:/siliconlabs/simplicitystudio/v4/developer/toolchains/gnu_arm/4.9_2015q3/bin/../lib/gcc/arm-none-eabi/4.9.3/../../../../arm-none-eabi/lib/armv7e-m/fpu\libc.a(lib_a-sprintf.o)
 .text          0x00000000        0x0 c:/siliconlabs/simplicitystudio/v4/developer/toolchains/gnu_arm/4.9_2015q3/bin/../lib/gcc/arm-none-eabi/4.9.3/../../../../arm-none-eabi/lib/armv7e-m/fpu\libc.a(lib_a-strlen.o)
 .data          0x00000000        0x0 c:/siliconlabs/simplicitystudio/v4/developer/toolchains/gnu_arm/4.9_2015q3/bin/../lib/gcc/arm-none-eabi/4.9.3/../../../../arm-none-eabi/lib/armv7e-m/fpu\libc.a(lib_a-strlen.o)
 .bss           0x00000000        0x0 c:/siliconlabs/simplicitystudio/v4/developer/toolchains/gnu_arm/4.9_2015q3/bin/../lib/gcc/arm-none-eabi/4.9.3/../../../../arm-none-eabi/lib/armv7e-m/fpu\libc.a(lib_a-strlen.o)
 .text          0x00000000        0x0 c:/siliconlabs/simplicitystudio/v4/developer/toolchains/gnu_arm/4.9_2015q3/bin/../lib/gcc/arm-none-eabi/4.9.3/../../../../arm-none-eabi/lib/armv7e-m/fpu\libc.a(lib_a-strncmp.o)
 .data          0x00000000        0x0 c:/siliconlabs/simplicitystudio/v4/developer/toolchains/gnu_arm/4.9_2015q3/bin/../lib/gcc/arm-none-eabi/4.9.3/../../../../arm-none-eabi/lib/armv7e-m/fpu\libc.a(lib_a-strncmp.o)
 .bss           0x00000000        0x0 c:/siliconlabs/simplicitystudio/v4/developer/toolchains/gnu_arm/4.9_2015q3/bin/../lib/gcc/arm-none-eabi/4.9.3/../../../../arm-none-eabi/lib/armv7e-m/fpu\libc.a(lib_a-strncmp.o)
 .text.strncmp  0x00000000       0x98 c:/siliconlabs/simplicitystudio/v4/developer/toolchains/gnu_arm/4.9_2015q3/bin/../lib/gcc/arm-none-eabi/4.9.3/../../../../arm-none-eabi/lib/armv7e-m/fpu\libc.a(lib_a-strncmp.o)
 .debug_frame   0x00000000       0x54 c:/siliconlabs/simplicitystudio/v4/developer/toolchains/gnu_arm/4.9_2015q3/bin/../lib/gcc/arm-none-eabi/4.9.3/../../../../arm-none-eabi/lib/armv7e-m/fpu\libc.a(lib_a-strncmp.o)
 .ARM.attributes
                0x00000000       0x34 c:/siliconlabs/simplicitystudio/v4/developer/toolchains/gnu_arm/4.9_2015q3/bin/../lib/gcc/arm-none-eabi/4.9.3/../../../../arm-none-eabi/lib/armv7e-m/fpu\libc.a(lib_a-strncmp.o)
 .text          0x00000000        0x0 c:/siliconlabs/simplicitystudio/v4/developer/toolchains/gnu_arm/4.9_2015q3/bin/../lib/gcc/arm-none-eabi/4.9.3/../../../../arm-none-eabi/lib/armv7e-m/fpu\libc.a(lib_a-strncpy.o)
 .data          0x00000000        0x0 c:/siliconlabs/simplicitystudio/v4/developer/toolchains/gnu_arm/4.9_2015q3/bin/../lib/gcc/arm-none-eabi/4.9.3/../../../../arm-none-eabi/lib/armv7e-m/fpu\libc.a(lib_a-strncpy.o)
 .bss           0x00000000        0x0 c:/siliconlabs/simplicitystudio/v4/developer/toolchains/gnu_arm/4.9_2015q3/bin/../lib/gcc/arm-none-eabi/4.9.3/../../../../arm-none-eabi/lib/armv7e-m/fpu\libc.a(lib_a-strncpy.o)
 .text          0x00000000        0x0 c:/siliconlabs/simplicitystudio/v4/developer/toolchains/gnu_arm/4.9_2015q3/bin/../lib/gcc/arm-none-eabi/4.9.3/../../../../arm-none-eabi/lib/armv7e-m/fpu\libc.a(lib_a-svfprintf.o)
 .data          0x00000000        0x0 c:/siliconlabs/simplicitystudio/v4/developer/toolchains/gnu_arm/4.9_2015q3/bin/../lib/gcc/arm-none-eabi/4.9.3/../../../../arm-none-eabi/lib/armv7e-m/fpu\libc.a(lib_a-svfprintf.o)
 .bss           0x00000000        0x0 c:/siliconlabs/simplicitystudio/v4/developer/toolchains/gnu_arm/4.9_2015q3/bin/../lib/gcc/arm-none-eabi/4.9.3/../../../../arm-none-eabi/lib/armv7e-m/fpu\libc.a(lib_a-svfprintf.o)
 .text          0x00000000        0x0 c:/siliconlabs/simplicitystudio/v4/developer/toolchains/gnu_arm/4.9_2015q3/bin/../lib/gcc/arm-none-eabi/4.9.3/../../../../arm-none-eabi/lib/armv7e-m/fpu\libc.a(lib_a-vfprintf.o)
 .data          0x00000000        0x0 c:/siliconlabs/simplicitystudio/v4/developer/toolchains/gnu_arm/4.9_2015q3/bin/../lib/gcc/arm-none-eabi/4.9.3/../../../../arm-none-eabi/lib/armv7e-m/fpu\libc.a(lib_a-vfprintf.o)
 .bss           0x00000000        0x0 c:/siliconlabs/simplicitystudio/v4/developer/toolchains/gnu_arm/4.9_2015q3/bin/../lib/gcc/arm-none-eabi/4.9.3/../../../../arm-none-eabi/lib/armv7e-m/fpu\libc.a(lib_a-vfprintf.o)
 .text.vfprintf
                0x00000000       0x18 c:/siliconlabs/simplicitystudio/v4/developer/toolchains/gnu_arm/4.9_2015q3/bin/../lib/gcc/arm-none-eabi/4.9.3/../../../../arm-none-eabi/lib/armv7e-m/fpu\libc.a(lib_a-vfprintf.o)
 .text          0x00000000        0x0 c:/siliconlabs/simplicitystudio/v4/developer/toolchains/gnu_arm/4.9_2015q3/bin/../lib/gcc/arm-none-eabi/4.9.3/../../../../arm-none-eabi/lib/armv7e-m/fpu\libc.a(lib_a-wsetup.o)
 .data          0x00000000        0x0 c:/siliconlabs/simplicitystudio/v4/developer/toolchains/gnu_arm/4.9_2015q3/bin/../lib/gcc/arm-none-eabi/4.9.3/../../../../arm-none-eabi/lib/armv7e-m/fpu\libc.a(lib_a-wsetup.o)
 .bss           0x00000000        0x0 c:/siliconlabs/simplicitystudio/v4/developer/toolchains/gnu_arm/4.9_2015q3/bin/../lib/gcc/arm-none-eabi/4.9.3/../../../../arm-none-eabi/lib/armv7e-m/fpu\libc.a(lib_a-wsetup.o)
 .text          0x00000000        0x0 c:/siliconlabs/simplicitystudio/v4/developer/toolchains/gnu_arm/4.9_2015q3/bin/../lib/gcc/arm-none-eabi/4.9.3/../../../../arm-none-eabi/lib/armv7e-m/fpu\libc.a(lib_a-__call_atexit.o)
 .data          0x00000000        0x0 c:/siliconlabs/simplicitystudio/v4/developer/toolchains/gnu_arm/4.9_2015q3/bin/../lib/gcc/arm-none-eabi/4.9.3/../../../../arm-none-eabi/lib/armv7e-m/fpu\libc.a(lib_a-__call_atexit.o)
 .bss           0x00000000        0x0 c:/siliconlabs/simplicitystudio/v4/developer/toolchains/gnu_arm/4.9_2015q3/bin/../lib/gcc/arm-none-eabi/4.9.3/../../../../arm-none-eabi/lib/armv7e-m/fpu\libc.a(lib_a-__call_atexit.o)
 .text          0x00000000        0x0 c:/siliconlabs/simplicitystudio/v4/developer/toolchains/gnu_arm/4.9_2015q3/bin/../lib/gcc/arm-none-eabi/4.9.3/../../../../arm-none-eabi/lib/armv7e-m/fpu\libc.a(lib_a-atexit.o)
 .data          0x00000000        0x0 c:/siliconlabs/simplicitystudio/v4/developer/toolchains/gnu_arm/4.9_2015q3/bin/../lib/gcc/arm-none-eabi/4.9.3/../../../../arm-none-eabi/lib/armv7e-m/fpu\libc.a(lib_a-atexit.o)
 .bss           0x00000000        0x0 c:/siliconlabs/simplicitystudio/v4/developer/toolchains/gnu_arm/4.9_2015q3/bin/../lib/gcc/arm-none-eabi/4.9.3/../../../../arm-none-eabi/lib/armv7e-m/fpu\libc.a(lib_a-atexit.o)
 .text          0x00000000        0x0 c:/siliconlabs/simplicitystudio/v4/developer/toolchains/gnu_arm/4.9_2015q3/bin/../lib/gcc/arm-none-eabi/4.9.3/../../../../arm-none-eabi/lib/armv7e-m/fpu\libc.a(lib_a-dtoa.o)
 .data          0x00000000        0x0 c:/siliconlabs/simplicitystudio/v4/developer/toolchains/gnu_arm/4.9_2015q3/bin/../lib/gcc/arm-none-eabi/4.9.3/../../../../arm-none-eabi/lib/armv7e-m/fpu\libc.a(lib_a-dtoa.o)
 .bss           0x00000000        0x0 c:/siliconlabs/simplicitystudio/v4/developer/toolchains/gnu_arm/4.9_2015q3/bin/../lib/gcc/arm-none-eabi/4.9.3/../../../../arm-none-eabi/lib/armv7e-m/fpu\libc.a(lib_a-dtoa.o)
 .text          0x00000000        0x0 c:/siliconlabs/simplicitystudio/v4/developer/toolchains/gnu_arm/4.9_2015q3/bin/../lib/gcc/arm-none-eabi/4.9.3/../../../../arm-none-eabi/lib/armv7e-m/fpu\libc.a(lib_a-fflush.o)
 .data          0x00000000        0x0 c:/siliconlabs/simplicitystudio/v4/developer/toolchains/gnu_arm/4.9_2015q3/bin/../lib/gcc/arm-none-eabi/4.9.3/../../../../arm-none-eabi/lib/armv7e-m/fpu\libc.a(lib_a-fflush.o)
 .bss           0x00000000        0x0 c:/siliconlabs/simplicitystudio/v4/developer/toolchains/gnu_arm/4.9_2015q3/bin/../lib/gcc/arm-none-eabi/4.9.3/../../../../arm-none-eabi/lib/armv7e-m/fpu\libc.a(lib_a-fflush.o)
 .text.fflush   0x00000000       0x24 c:/siliconlabs/simplicitystudio/v4/developer/toolchains/gnu_arm/4.9_2015q3/bin/../lib/gcc/arm-none-eabi/4.9.3/../../../../arm-none-eabi/lib/armv7e-m/fpu\libc.a(lib_a-fflush.o)
 .text          0x00000000        0x0 c:/siliconlabs/simplicitystudio/v4/developer/toolchains/gnu_arm/4.9_2015q3/bin/../lib/gcc/arm-none-eabi/4.9.3/../../../../arm-none-eabi/lib/armv7e-m/fpu\libc.a(lib_a-findfp.o)
 .data          0x00000000        0x0 c:/siliconlabs/simplicitystudio/v4/developer/toolchains/gnu_arm/4.9_2015q3/bin/../lib/gcc/arm-none-eabi/4.9.3/../../../../arm-none-eabi/lib/armv7e-m/fpu\libc.a(lib_a-findfp.o)
 .bss           0x00000000        0x0 c:/siliconlabs/simplicitystudio/v4/developer/toolchains/gnu_arm/4.9_2015q3/bin/../lib/gcc/arm-none-eabi/4.9.3/../../../../arm-none-eabi/lib/armv7e-m/fpu\libc.a(lib_a-findfp.o)
 .text.__fp_lock
                0x00000000        0x4 c:/siliconlabs/simplicitystudio/v4/developer/toolchains/gnu_arm/4.9_2015q3/bin/../lib/gcc/arm-none-eabi/4.9.3/../../../../arm-none-eabi/lib/armv7e-m/fpu\libc.a(lib_a-findfp.o)
 .text.__fp_unlock
                0x00000000        0x4 c:/siliconlabs/simplicitystudio/v4/developer/toolchains/gnu_arm/4.9_2015q3/bin/../lib/gcc/arm-none-eabi/4.9.3/../../../../arm-none-eabi/lib/armv7e-m/fpu\libc.a(lib_a-findfp.o)
 .text.__sfmoreglue
                0x00000000       0x30 c:/siliconlabs/simplicitystudio/v4/developer/toolchains/gnu_arm/4.9_2015q3/bin/../lib/gcc/arm-none-eabi/4.9.3/../../../../arm-none-eabi/lib/armv7e-m/fpu\libc.a(lib_a-findfp.o)
 .text.__sfp    0x00000000       0x88 c:/siliconlabs/simplicitystudio/v4/developer/toolchains/gnu_arm/4.9_2015q3/bin/../lib/gcc/arm-none-eabi/4.9.3/../../../../arm-none-eabi/lib/armv7e-m/fpu\libc.a(lib_a-findfp.o)
 .text._cleanup
                0x00000000       0x14 c:/siliconlabs/simplicitystudio/v4/developer/toolchains/gnu_arm/4.9_2015q3/bin/../lib/gcc/arm-none-eabi/4.9.3/../../../../arm-none-eabi/lib/armv7e-m/fpu\libc.a(lib_a-findfp.o)
 .text.__sinit_lock_acquire
                0x00000000        0x4 c:/siliconlabs/simplicitystudio/v4/developer/toolchains/gnu_arm/4.9_2015q3/bin/../lib/gcc/arm-none-eabi/4.9.3/../../../../arm-none-eabi/lib/armv7e-m/fpu\libc.a(lib_a-findfp.o)
 .text.__sinit_lock_release
                0x00000000        0x4 c:/siliconlabs/simplicitystudio/v4/developer/toolchains/gnu_arm/4.9_2015q3/bin/../lib/gcc/arm-none-eabi/4.9.3/../../../../arm-none-eabi/lib/armv7e-m/fpu\libc.a(lib_a-findfp.o)
 .text.__fp_lock_all
                0x00000000       0x14 c:/siliconlabs/simplicitystudio/v4/developer/toolchains/gnu_arm/4.9_2015q3/bin/../lib/gcc/arm-none-eabi/4.9.3/../../../../arm-none-eabi/lib/armv7e-m/fpu\libc.a(lib_a-findfp.o)
 .text.__fp_unlock_all
                0x00000000       0x14 c:/siliconlabs/simplicitystudio/v4/developer/toolchains/gnu_arm/4.9_2015q3/bin/../lib/gcc/arm-none-eabi/4.9.3/../../../../arm-none-eabi/lib/armv7e-m/fpu\libc.a(lib_a-findfp.o)
 .text          0x00000000        0x0 c:/siliconlabs/simplicitystudio/v4/developer/toolchains/gnu_arm/4.9_2015q3/bin/../lib/gcc/arm-none-eabi/4.9.3/../../../../arm-none-eabi/lib/armv7e-m/fpu\libc.a(lib_a-fini.o)
 .data          0x00000000        0x0 c:/siliconlabs/simplicitystudio/v4/developer/toolchains/gnu_arm/4.9_2015q3/bin/../lib/gcc/arm-none-eabi/4.9.3/../../../../arm-none-eabi/lib/armv7e-m/fpu\libc.a(lib_a-fini.o)
 .bss           0x00000000        0x0 c:/siliconlabs/simplicitystudio/v4/developer/toolchains/gnu_arm/4.9_2015q3/bin/../lib/gcc/arm-none-eabi/4.9.3/../../../../arm-none-eabi/lib/armv7e-m/fpu\libc.a(lib_a-fini.o)
 .text          0x00000000        0x0 c:/siliconlabs/simplicitystudio/v4/developer/toolchains/gnu_arm/4.9_2015q3/bin/../lib/gcc/arm-none-eabi/4.9.3/../../../../arm-none-eabi/lib/armv7e-m/fpu\libc.a(lib_a-freer.o)
 .data          0x00000000        0x0 c:/siliconlabs/simplicitystudio/v4/developer/toolchains/gnu_arm/4.9_2015q3/bin/../lib/gcc/arm-none-eabi/4.9.3/../../../../arm-none-eabi/lib/armv7e-m/fpu\libc.a(lib_a-freer.o)
 .bss           0x00000000        0x0 c:/siliconlabs/simplicitystudio/v4/developer/toolchains/gnu_arm/4.9_2015q3/bin/../lib/gcc/arm-none-eabi/4.9.3/../../../../arm-none-eabi/lib/armv7e-m/fpu\libc.a(lib_a-freer.o)
 .text          0x00000000        0x0 c:/siliconlabs/simplicitystudio/v4/developer/toolchains/gnu_arm/4.9_2015q3/bin/../lib/gcc/arm-none-eabi/4.9.3/../../../../arm-none-eabi/lib/armv7e-m/fpu\libc.a(lib_a-fvwrite.o)
 .data          0x00000000        0x0 c:/siliconlabs/simplicitystudio/v4/developer/toolchains/gnu_arm/4.9_2015q3/bin/../lib/gcc/arm-none-eabi/4.9.3/../../../../arm-none-eabi/lib/armv7e-m/fpu\libc.a(lib_a-fvwrite.o)
 .bss           0x00000000        0x0 c:/siliconlabs/simplicitystudio/v4/developer/toolchains/gnu_arm/4.9_2015q3/bin/../lib/gcc/arm-none-eabi/4.9.3/../../../../arm-none-eabi/lib/armv7e-m/fpu\libc.a(lib_a-fvwrite.o)
 .text          0x00000000        0x0 c:/siliconlabs/simplicitystudio/v4/developer/toolchains/gnu_arm/4.9_2015q3/bin/../lib/gcc/arm-none-eabi/4.9.3/../../../../arm-none-eabi/lib/armv7e-m/fpu\libc.a(lib_a-fwalk.o)
 .data          0x00000000        0x0 c:/siliconlabs/simplicitystudio/v4/developer/toolchains/gnu_arm/4.9_2015q3/bin/../lib/gcc/arm-none-eabi/4.9.3/../../../../arm-none-eabi/lib/armv7e-m/fpu\libc.a(lib_a-fwalk.o)
 .bss           0x00000000        0x0 c:/siliconlabs/simplicitystudio/v4/developer/toolchains/gnu_arm/4.9_2015q3/bin/../lib/gcc/arm-none-eabi/4.9.3/../../../../arm-none-eabi/lib/armv7e-m/fpu\libc.a(lib_a-fwalk.o)
 .text._fwalk   0x00000000       0x4c c:/siliconlabs/simplicitystudio/v4/developer/toolchains/gnu_arm/4.9_2015q3/bin/../lib/gcc/arm-none-eabi/4.9.3/../../../../arm-none-eabi/lib/armv7e-m/fpu\libc.a(lib_a-fwalk.o)
 .text          0x00000000        0x0 c:/siliconlabs/simplicitystudio/v4/developer/toolchains/gnu_arm/4.9_2015q3/bin/../lib/gcc/arm-none-eabi/4.9.3/../../../../arm-none-eabi/lib/armv7e-m/fpu\libc.a(lib_a-locale.o)
 .data          0x00000000        0x0 c:/siliconlabs/simplicitystudio/v4/developer/toolchains/gnu_arm/4.9_2015q3/bin/../lib/gcc/arm-none-eabi/4.9.3/../../../../arm-none-eabi/lib/armv7e-m/fpu\libc.a(lib_a-locale.o)
 .bss           0x00000000        0x0 c:/siliconlabs/simplicitystudio/v4/developer/toolchains/gnu_arm/4.9_2015q3/bin/../lib/gcc/arm-none-eabi/4.9.3/../../../../arm-none-eabi/lib/armv7e-m/fpu\libc.a(lib_a-locale.o)
 .text._setlocale_r
                0x00000000       0x44 c:/siliconlabs/simplicitystudio/v4/developer/toolchains/gnu_arm/4.9_2015q3/bin/../lib/gcc/arm-none-eabi/4.9.3/../../../../arm-none-eabi/lib/armv7e-m/fpu\libc.a(lib_a-locale.o)
 .text.__locale_msgcharset
                0x00000000        0x8 c:/siliconlabs/simplicitystudio/v4/developer/toolchains/gnu_arm/4.9_2015q3/bin/../lib/gcc/arm-none-eabi/4.9.3/../../../../arm-none-eabi/lib/armv7e-m/fpu\libc.a(lib_a-locale.o)
 .text.__locale_cjk_lang
                0x00000000        0x4 c:/siliconlabs/simplicitystudio/v4/developer/toolchains/gnu_arm/4.9_2015q3/bin/../lib/gcc/arm-none-eabi/4.9.3/../../../../arm-none-eabi/lib/armv7e-m/fpu\libc.a(lib_a-locale.o)
 .text.setlocale
                0x00000000       0x10 c:/siliconlabs/simplicitystudio/v4/developer/toolchains/gnu_arm/4.9_2015q3/bin/../lib/gcc/arm-none-eabi/4.9.3/../../../../arm-none-eabi/lib/armv7e-m/fpu\libc.a(lib_a-locale.o)
 .text.localeconv
                0x00000000        0x8 c:/siliconlabs/simplicitystudio/v4/developer/toolchains/gnu_arm/4.9_2015q3/bin/../lib/gcc/arm-none-eabi/4.9.3/../../../../arm-none-eabi/lib/armv7e-m/fpu\libc.a(lib_a-locale.o)
 .data.lc_message_charset
                0x00000000       0x20 c:/siliconlabs/simplicitystudio/v4/developer/toolchains/gnu_arm/4.9_2015q3/bin/../lib/gcc/arm-none-eabi/4.9.3/../../../../arm-none-eabi/lib/armv7e-m/fpu\libc.a(lib_a-locale.o)
 .bss._PathLocale
                0x00000000        0x4 c:/siliconlabs/simplicitystudio/v4/developer/toolchains/gnu_arm/4.9_2015q3/bin/../lib/gcc/arm-none-eabi/4.9.3/../../../../arm-none-eabi/lib/armv7e-m/fpu\libc.a(lib_a-locale.o)
 .bss.__nlocale_changed
                0x00000000        0x4 c:/siliconlabs/simplicitystudio/v4/developer/toolchains/gnu_arm/4.9_2015q3/bin/../lib/gcc/arm-none-eabi/4.9.3/../../../../arm-none-eabi/lib/armv7e-m/fpu\libc.a(lib_a-locale.o)
 .bss.__mlocale_changed
                0x00000000        0x4 c:/siliconlabs/simplicitystudio/v4/developer/toolchains/gnu_arm/4.9_2015q3/bin/../lib/gcc/arm-none-eabi/4.9.3/../../../../arm-none-eabi/lib/armv7e-m/fpu\libc.a(lib_a-locale.o)
 .text          0x00000000        0x0 c:/siliconlabs/simplicitystudio/v4/developer/toolchains/gnu_arm/4.9_2015q3/bin/../lib/gcc/arm-none-eabi/4.9.3/../../../../arm-none-eabi/lib/armv7e-m/fpu\libc.a(lib_a-makebuf.o)
 .data          0x00000000        0x0 c:/siliconlabs/simplicitystudio/v4/developer/toolchains/gnu_arm/4.9_2015q3/bin/../lib/gcc/arm-none-eabi/4.9.3/../../../../arm-none-eabi/lib/armv7e-m/fpu\libc.a(lib_a-makebuf.o)
 .bss           0x00000000        0x0 c:/siliconlabs/simplicitystudio/v4/developer/toolchains/gnu_arm/4.9_2015q3/bin/../lib/gcc/arm-none-eabi/4.9.3/../../../../arm-none-eabi/lib/armv7e-m/fpu\libc.a(lib_a-makebuf.o)
 .text          0x00000000        0x0 c:/siliconlabs/simplicitystudio/v4/developer/toolchains/gnu_arm/4.9_2015q3/bin/../lib/gcc/arm-none-eabi/4.9.3/../../../../arm-none-eabi/lib/armv7e-m/fpu\libc.a(lib_a-malloc.o)
 .data          0x00000000        0x0 c:/siliconlabs/simplicitystudio/v4/developer/toolchains/gnu_arm/4.9_2015q3/bin/../lib/gcc/arm-none-eabi/4.9.3/../../../../arm-none-eabi/lib/armv7e-m/fpu\libc.a(lib_a-malloc.o)
 .bss           0x00000000        0x0 c:/siliconlabs/simplicitystudio/v4/developer/toolchains/gnu_arm/4.9_2015q3/bin/../lib/gcc/arm-none-eabi/4.9.3/../../../../arm-none-eabi/lib/armv7e-m/fpu\libc.a(lib_a-malloc.o)
 .text          0x00000000        0x0 c:/siliconlabs/simplicitystudio/v4/developer/toolchains/gnu_arm/4.9_2015q3/bin/../lib/gcc/arm-none-eabi/4.9.3/../../../../arm-none-eabi/lib/armv7e-m/fpu\libc.a(lib_a-mallocr.o)
 .data          0x00000000        0x0 c:/siliconlabs/simplicitystudio/v4/developer/toolchains/gnu_arm/4.9_2015q3/bin/../lib/gcc/arm-none-eabi/4.9.3/../../../../arm-none-eabi/lib/armv7e-m/fpu\libc.a(lib_a-mallocr.o)
 .bss           0x00000000        0x0 c:/siliconlabs/simplicitystudio/v4/developer/toolchains/gnu_arm/4.9_2015q3/bin/../lib/gcc/arm-none-eabi/4.9.3/../../../../arm-none-eabi/lib/armv7e-m/fpu\libc.a(lib_a-mallocr.o)
 .text          0x00000000        0x0 c:/siliconlabs/simplicitystudio/v4/developer/toolchains/gnu_arm/4.9_2015q3/bin/../lib/gcc/arm-none-eabi/4.9.3/../../../../arm-none-eabi/lib/armv7e-m/fpu\libc.a(lib_a-memchr.o)
 .data          0x00000000        0x0 c:/siliconlabs/simplicitystudio/v4/developer/toolchains/gnu_arm/4.9_2015q3/bin/../lib/gcc/arm-none-eabi/4.9.3/../../../../arm-none-eabi/lib/armv7e-m/fpu\libc.a(lib_a-memchr.o)
 .bss           0x00000000        0x0 c:/siliconlabs/simplicitystudio/v4/developer/toolchains/gnu_arm/4.9_2015q3/bin/../lib/gcc/arm-none-eabi/4.9.3/../../../../arm-none-eabi/lib/armv7e-m/fpu\libc.a(lib_a-memchr.o)
 .text          0x00000000        0x0 c:/siliconlabs/simplicitystudio/v4/developer/toolchains/gnu_arm/4.9_2015q3/bin/../lib/gcc/arm-none-eabi/4.9.3/../../../../arm-none-eabi/lib/armv7e-m/fpu\libc.a(lib_a-memmove.o)
 .data          0x00000000        0x0 c:/siliconlabs/simplicitystudio/v4/developer/toolchains/gnu_arm/4.9_2015q3/bin/../lib/gcc/arm-none-eabi/4.9.3/../../../../arm-none-eabi/lib/armv7e-m/fpu\libc.a(lib_a-memmove.o)
 .bss           0x00000000        0x0 c:/siliconlabs/simplicitystudio/v4/developer/toolchains/gnu_arm/4.9_2015q3/bin/../lib/gcc/arm-none-eabi/4.9.3/../../../../arm-none-eabi/lib/armv7e-m/fpu\libc.a(lib_a-memmove.o)
 .text          0x00000000        0x0 c:/siliconlabs/simplicitystudio/v4/developer/toolchains/gnu_arm/4.9_2015q3/bin/../lib/gcc/arm-none-eabi/4.9.3/../../../../arm-none-eabi/lib/armv7e-m/fpu\libc.a(lib_a-mlock.o)
 .data          0x00000000        0x0 c:/siliconlabs/simplicitystudio/v4/developer/toolchains/gnu_arm/4.9_2015q3/bin/../lib/gcc/arm-none-eabi/4.9.3/../../../../arm-none-eabi/lib/armv7e-m/fpu\libc.a(lib_a-mlock.o)
 .bss           0x00000000        0x0 c:/siliconlabs/simplicitystudio/v4/developer/toolchains/gnu_arm/4.9_2015q3/bin/../lib/gcc/arm-none-eabi/4.9.3/../../../../arm-none-eabi/lib/armv7e-m/fpu\libc.a(lib_a-mlock.o)
 .text          0x00000000        0x0 c:/siliconlabs/simplicitystudio/v4/developer/toolchains/gnu_arm/4.9_2015q3/bin/../lib/gcc/arm-none-eabi/4.9.3/../../../../arm-none-eabi/lib/armv7e-m/fpu\libc.a(lib_a-mprec.o)
 .data          0x00000000        0x0 c:/siliconlabs/simplicitystudio/v4/developer/toolchains/gnu_arm/4.9_2015q3/bin/../lib/gcc/arm-none-eabi/4.9.3/../../../../arm-none-eabi/lib/armv7e-m/fpu\libc.a(lib_a-mprec.o)
 .bss           0x00000000        0x0 c:/siliconlabs/simplicitystudio/v4/developer/toolchains/gnu_arm/4.9_2015q3/bin/../lib/gcc/arm-none-eabi/4.9.3/../../../../arm-none-eabi/lib/armv7e-m/fpu\libc.a(lib_a-mprec.o)
 .text.__s2b    0x00000000       0x98 c:/siliconlabs/simplicitystudio/v4/developer/toolchains/gnu_arm/4.9_2015q3/bin/../lib/gcc/arm-none-eabi/4.9.3/../../../../arm-none-eabi/lib/armv7e-m/fpu\libc.a(lib_a-mprec.o)
 .text.__ulp    0x00000000       0x50 c:/siliconlabs/simplicitystudio/v4/developer/toolchains/gnu_arm/4.9_2015q3/bin/../lib/gcc/arm-none-eabi/4.9.3/../../../../arm-none-eabi/lib/armv7e-m/fpu\libc.a(lib_a-mprec.o)
 .text.__b2d    0x00000000       0xc4 c:/siliconlabs/simplicitystudio/v4/developer/toolchains/gnu_arm/4.9_2015q3/bin/../lib/gcc/arm-none-eabi/4.9.3/../../../../arm-none-eabi/lib/armv7e-m/fpu\libc.a(lib_a-mprec.o)
 .text.__ratio  0x00000000       0x60 c:/siliconlabs/simplicitystudio/v4/developer/toolchains/gnu_arm/4.9_2015q3/bin/../lib/gcc/arm-none-eabi/4.9.3/../../../../arm-none-eabi/lib/armv7e-m/fpu\libc.a(lib_a-mprec.o)
 .text._mprec_log10
                0x00000000       0x38 c:/siliconlabs/simplicitystudio/v4/developer/toolchains/gnu_arm/4.9_2015q3/bin/../lib/gcc/arm-none-eabi/4.9.3/../../../../arm-none-eabi/lib/armv7e-m/fpu\libc.a(lib_a-mprec.o)
 .text.__copybits
                0x00000000       0x48 c:/siliconlabs/simplicitystudio/v4/developer/toolchains/gnu_arm/4.9_2015q3/bin/../lib/gcc/arm-none-eabi/4.9.3/../../../../arm-none-eabi/lib/armv7e-m/fpu\libc.a(lib_a-mprec.o)
 .text.__any_on
                0x00000000       0x60 c:/siliconlabs/simplicitystudio/v4/developer/toolchains/gnu_arm/4.9_2015q3/bin/../lib/gcc/arm-none-eabi/4.9.3/../../../../arm-none-eabi/lib/armv7e-m/fpu\libc.a(lib_a-mprec.o)
 .rodata.__mprec_tinytens
                0x00000000       0x28 c:/siliconlabs/simplicitystudio/v4/developer/toolchains/gnu_arm/4.9_2015q3/bin/../lib/gcc/arm-none-eabi/4.9.3/../../../../arm-none-eabi/lib/armv7e-m/fpu\libc.a(lib_a-mprec.o)
 .text          0x00000000        0x0 c:/siliconlabs/simplicitystudio/v4/developer/toolchains/gnu_arm/4.9_2015q3/bin/../lib/gcc/arm-none-eabi/4.9.3/../../../../arm-none-eabi/lib/armv7e-m/fpu\libc.a(lib_a-reallocr.o)
 .data          0x00000000        0x0 c:/siliconlabs/simplicitystudio/v4/developer/toolchains/gnu_arm/4.9_2015q3/bin/../lib/gcc/arm-none-eabi/4.9.3/../../../../arm-none-eabi/lib/armv7e-m/fpu\libc.a(lib_a-reallocr.o)
 .bss           0x00000000        0x0 c:/siliconlabs/simplicitystudio/v4/developer/toolchains/gnu_arm/4.9_2015q3/bin/../lib/gcc/arm-none-eabi/4.9.3/../../../../arm-none-eabi/lib/armv7e-m/fpu\libc.a(lib_a-reallocr.o)
 .text          0x00000000        0x0 c:/siliconlabs/simplicitystudio/v4/developer/toolchains/gnu_arm/4.9_2015q3/bin/../lib/gcc/arm-none-eabi/4.9.3/../../../../arm-none-eabi/lib/armv7e-m/fpu\libc.a(lib_a-s_fpclassify.o)
 .data          0x00000000        0x0 c:/siliconlabs/simplicitystudio/v4/developer/toolchains/gnu_arm/4.9_2015q3/bin/../lib/gcc/arm-none-eabi/4.9.3/../../../../arm-none-eabi/lib/armv7e-m/fpu\libc.a(lib_a-s_fpclassify.o)
 .bss           0x00000000        0x0 c:/siliconlabs/simplicitystudio/v4/developer/toolchains/gnu_arm/4.9_2015q3/bin/../lib/gcc/arm-none-eabi/4.9.3/../../../../arm-none-eabi/lib/armv7e-m/fpu\libc.a(lib_a-s_fpclassify.o)
 .text          0x00000000        0x0 c:/siliconlabs/simplicitystudio/v4/developer/toolchains/gnu_arm/4.9_2015q3/bin/../lib/gcc/arm-none-eabi/4.9.3/../../../../arm-none-eabi/lib/armv7e-m/fpu\libc.a(lib_a-sbrkr.o)
 .data          0x00000000        0x0 c:/siliconlabs/simplicitystudio/v4/developer/toolchains/gnu_arm/4.9_2015q3/bin/../lib/gcc/arm-none-eabi/4.9.3/../../../../arm-none-eabi/lib/armv7e-m/fpu\libc.a(lib_a-sbrkr.o)
 .bss           0x00000000        0x0 c:/siliconlabs/simplicitystudio/v4/developer/toolchains/gnu_arm/4.9_2015q3/bin/../lib/gcc/arm-none-eabi/4.9.3/../../../../arm-none-eabi/lib/armv7e-m/fpu\libc.a(lib_a-sbrkr.o)
 .text          0x00000000        0x0 c:/siliconlabs/simplicitystudio/v4/developer/toolchains/gnu_arm/4.9_2015q3/bin/../lib/gcc/arm-none-eabi/4.9.3/../../../../arm-none-eabi/lib/armv7e-m/fpu\libc.a(lib_a-stdio.o)
 .data          0x00000000        0x0 c:/siliconlabs/simplicitystudio/v4/developer/toolchains/gnu_arm/4.9_2015q3/bin/../lib/gcc/arm-none-eabi/4.9.3/../../../../arm-none-eabi/lib/armv7e-m/fpu\libc.a(lib_a-stdio.o)
 .bss           0x00000000        0x0 c:/siliconlabs/simplicitystudio/v4/developer/toolchains/gnu_arm/4.9_2015q3/bin/../lib/gcc/arm-none-eabi/4.9.3/../../../../arm-none-eabi/lib/armv7e-m/fpu\libc.a(lib_a-stdio.o)
 .text.__seofread
                0x00000000        0x4 c:/siliconlabs/simplicitystudio/v4/developer/toolchains/gnu_arm/4.9_2015q3/bin/../lib/gcc/arm-none-eabi/4.9.3/../../../../arm-none-eabi/lib/armv7e-m/fpu\libc.a(lib_a-stdio.o)
 .text          0x00000000      0x2dc c:/siliconlabs/simplicitystudio/v4/developer/toolchains/gnu_arm/4.9_2015q3/bin/../lib/gcc/arm-none-eabi/4.9.3/../../../../arm-none-eabi/lib/armv7e-m/fpu\libc.a(lib_a-strcmp.o)
 .data          0x00000000        0x0 c:/siliconlabs/simplicitystudio/v4/developer/toolchains/gnu_arm/4.9_2015q3/bin/../lib/gcc/arm-none-eabi/4.9.3/../../../../arm-none-eabi/lib/armv7e-m/fpu\libc.a(lib_a-strcmp.o)
 .bss           0x00000000        0x0 c:/siliconlabs/simplicitystudio/v4/developer/toolchains/gnu_arm/4.9_2015q3/bin/../lib/gcc/arm-none-eabi/4.9.3/../../../../arm-none-eabi/lib/armv7e-m/fpu\libc.a(lib_a-strcmp.o)
 .text          0x00000000        0x0 c:/siliconlabs/simplicitystudio/v4/developer/toolchains/gnu_arm/4.9_2015q3/bin/../lib/gcc/arm-none-eabi/4.9.3/../../../../arm-none-eabi/lib/armv7e-m/fpu\libc.a(lib_a-svfiprintf.o)
 .data          0x00000000        0x0 c:/siliconlabs/simplicitystudio/v4/developer/toolchains/gnu_arm/4.9_2015q3/bin/../lib/gcc/arm-none-eabi/4.9.3/../../../../arm-none-eabi/lib/armv7e-m/fpu\libc.a(lib_a-svfiprintf.o)
 .bss           0x00000000        0x0 c:/siliconlabs/simplicitystudio/v4/developer/toolchains/gnu_arm/4.9_2015q3/bin/../lib/gcc/arm-none-eabi/4.9.3/../../../../arm-none-eabi/lib/armv7e-m/fpu\libc.a(lib_a-svfiprintf.o)
 .text._svfiprintf_r
                0x00000000      0xaa0 c:/siliconlabs/simplicitystudio/v4/developer/toolchains/gnu_arm/4.9_2015q3/bin/../lib/gcc/arm-none-eabi/4.9.3/../../../../arm-none-eabi/lib/armv7e-m/fpu\libc.a(lib_a-svfiprintf.o)
 .rodata.blanks.6854
                0x00000000       0x10 c:/siliconlabs/simplicitystudio/v4/developer/toolchains/gnu_arm/4.9_2015q3/bin/../lib/gcc/arm-none-eabi/4.9.3/../../../../arm-none-eabi/lib/armv7e-m/fpu\libc.a(lib_a-svfiprintf.o)
 .rodata.str1.4
                0x00000000       0x2f c:/siliconlabs/simplicitystudio/v4/developer/toolchains/gnu_arm/4.9_2015q3/bin/../lib/gcc/arm-none-eabi/4.9.3/../../../../arm-none-eabi/lib/armv7e-m/fpu\libc.a(lib_a-svfiprintf.o)
 .rodata.zeroes.6855
                0x00000000       0x10 c:/siliconlabs/simplicitystudio/v4/developer/toolchains/gnu_arm/4.9_2015q3/bin/../lib/gcc/arm-none-eabi/4.9.3/../../../../arm-none-eabi/lib/armv7e-m/fpu\libc.a(lib_a-svfiprintf.o)
 .text          0x00000000        0x0 c:/siliconlabs/simplicitystudio/v4/developer/toolchains/gnu_arm/4.9_2015q3/bin/../lib/gcc/arm-none-eabi/4.9.3/../../../../arm-none-eabi/lib/armv7e-m/fpu\libc.a(lib_a-vfiprintf.o)
 .data          0x00000000        0x0 c:/siliconlabs/simplicitystudio/v4/developer/toolchains/gnu_arm/4.9_2015q3/bin/../lib/gcc/arm-none-eabi/4.9.3/../../../../arm-none-eabi/lib/armv7e-m/fpu\libc.a(lib_a-vfiprintf.o)
 .bss           0x00000000        0x0 c:/siliconlabs/simplicitystudio/v4/developer/toolchains/gnu_arm/4.9_2015q3/bin/../lib/gcc/arm-none-eabi/4.9.3/../../../../arm-none-eabi/lib/armv7e-m/fpu\libc.a(lib_a-vfiprintf.o)
 .text._vfiprintf_r
                0x00000000      0xc10 c:/siliconlabs/simplicitystudio/v4/developer/toolchains/gnu_arm/4.9_2015q3/bin/../lib/gcc/arm-none-eabi/4.9.3/../../../../arm-none-eabi/lib/armv7e-m/fpu\libc.a(lib_a-vfiprintf.o)
 .text.vfiprintf
                0x00000000       0x18 c:/siliconlabs/simplicitystudio/v4/developer/toolchains/gnu_arm/4.9_2015q3/bin/../lib/gcc/arm-none-eabi/4.9.3/../../../../arm-none-eabi/lib/armv7e-m/fpu\libc.a(lib_a-vfiprintf.o)
 .text.__sbprintf
                0x00000000       0x78 c:/siliconlabs/simplicitystudio/v4/developer/toolchains/gnu_arm/4.9_2015q3/bin/../lib/gcc/arm-none-eabi/4.9.3/../../../../arm-none-eabi/lib/armv7e-m/fpu\libc.a(lib_a-vfiprintf.o)
 .rodata.zeroes.6869
                0x00000000       0x10 c:/siliconlabs/simplicitystudio/v4/developer/toolchains/gnu_arm/4.9_2015q3/bin/../lib/gcc/arm-none-eabi/4.9.3/../../../../arm-none-eabi/lib/armv7e-m/fpu\libc.a(lib_a-vfiprintf.o)
 .rodata.str1.4
                0x00000000       0x2f c:/siliconlabs/simplicitystudio/v4/developer/toolchains/gnu_arm/4.9_2015q3/bin/../lib/gcc/arm-none-eabi/4.9.3/../../../../arm-none-eabi/lib/armv7e-m/fpu\libc.a(lib_a-vfiprintf.o)
 .rodata.blanks.6868
                0x00000000       0x10 c:/siliconlabs/simplicitystudio/v4/developer/toolchains/gnu_arm/4.9_2015q3/bin/../lib/gcc/arm-none-eabi/4.9.3/../../../../arm-none-eabi/lib/armv7e-m/fpu\libc.a(lib_a-vfiprintf.o)
 .text          0x00000000        0x0 c:/siliconlabs/simplicitystudio/v4/developer/toolchains/gnu_arm/4.9_2015q3/bin/../lib/gcc/arm-none-eabi/4.9.3/../../../../arm-none-eabi/lib/armv7e-m/fpu\libc.a(lib_a-writer.o)
 .data          0x00000000        0x0 c:/siliconlabs/simplicitystudio/v4/developer/toolchains/gnu_arm/4.9_2015q3/bin/../lib/gcc/arm-none-eabi/4.9.3/../../../../arm-none-eabi/lib/armv7e-m/fpu\libc.a(lib_a-writer.o)
 .bss           0x00000000        0x0 c:/siliconlabs/simplicitystudio/v4/developer/toolchains/gnu_arm/4.9_2015q3/bin/../lib/gcc/arm-none-eabi/4.9.3/../../../../arm-none-eabi/lib/armv7e-m/fpu\libc.a(lib_a-writer.o)
 .text          0x00000000        0x0 c:/siliconlabs/simplicitystudio/v4/developer/toolchains/gnu_arm/4.9_2015q3/bin/../lib/gcc/arm-none-eabi/4.9.3/../../../../arm-none-eabi/lib/armv7e-m/fpu\libc.a(lib_a-__atexit.o)
 .data          0x00000000        0x0 c:/siliconlabs/simplicitystudio/v4/developer/toolchains/gnu_arm/4.9_2015q3/bin/../lib/gcc/arm-none-eabi/4.9.3/../../../../arm-none-eabi/lib/armv7e-m/fpu\libc.a(lib_a-__atexit.o)
 .bss           0x00000000        0x0 c:/siliconlabs/simplicitystudio/v4/developer/toolchains/gnu_arm/4.9_2015q3/bin/../lib/gcc/arm-none-eabi/4.9.3/../../../../arm-none-eabi/lib/armv7e-m/fpu\libc.a(lib_a-__atexit.o)
 .text          0x00000000        0x0 c:/siliconlabs/simplicitystudio/v4/developer/toolchains/gnu_arm/4.9_2015q3/bin/../lib/gcc/arm-none-eabi/4.9.3/../../../../arm-none-eabi/lib/armv7e-m/fpu\libc.a(lib_a-callocr.o)
 .data          0x00000000        0x0 c:/siliconlabs/simplicitystudio/v4/developer/toolchains/gnu_arm/4.9_2015q3/bin/../lib/gcc/arm-none-eabi/4.9.3/../../../../arm-none-eabi/lib/armv7e-m/fpu\libc.a(lib_a-callocr.o)
 .bss           0x00000000        0x0 c:/siliconlabs/simplicitystudio/v4/developer/toolchains/gnu_arm/4.9_2015q3/bin/../lib/gcc/arm-none-eabi/4.9.3/../../../../arm-none-eabi/lib/armv7e-m/fpu\libc.a(lib_a-callocr.o)
 .text          0x00000000        0x0 c:/siliconlabs/simplicitystudio/v4/developer/toolchains/gnu_arm/4.9_2015q3/bin/../lib/gcc/arm-none-eabi/4.9.3/../../../../arm-none-eabi/lib/armv7e-m/fpu\libc.a(lib_a-closer.o)
 .data          0x00000000        0x0 c:/siliconlabs/simplicitystudio/v4/developer/toolchains/gnu_arm/4.9_2015q3/bin/../lib/gcc/arm-none-eabi/4.9.3/../../../../arm-none-eabi/lib/armv7e-m/fpu\libc.a(lib_a-closer.o)
 .bss           0x00000000        0x0 c:/siliconlabs/simplicitystudio/v4/developer/toolchains/gnu_arm/4.9_2015q3/bin/../lib/gcc/arm-none-eabi/4.9.3/../../../../arm-none-eabi/lib/armv7e-m/fpu\libc.a(lib_a-closer.o)
 .text          0x00000000        0x0 c:/siliconlabs/simplicitystudio/v4/developer/toolchains/gnu_arm/4.9_2015q3/bin/../lib/gcc/arm-none-eabi/4.9.3/../../../../arm-none-eabi/lib/armv7e-m/fpu\libc.a(lib_a-fclose.o)
 .data          0x00000000        0x0 c:/siliconlabs/simplicitystudio/v4/developer/toolchains/gnu_arm/4.9_2015q3/bin/../lib/gcc/arm-none-eabi/4.9.3/../../../../arm-none-eabi/lib/armv7e-m/fpu\libc.a(lib_a-fclose.o)
 .bss           0x00000000        0x0 c:/siliconlabs/simplicitystudio/v4/developer/toolchains/gnu_arm/4.9_2015q3/bin/../lib/gcc/arm-none-eabi/4.9.3/../../../../arm-none-eabi/lib/armv7e-m/fpu\libc.a(lib_a-fclose.o)
 .text.fclose   0x00000000       0x10 c:/siliconlabs/simplicitystudio/v4/developer/toolchains/gnu_arm/4.9_2015q3/bin/../lib/gcc/arm-none-eabi/4.9.3/../../../../arm-none-eabi/lib/armv7e-m/fpu\libc.a(lib_a-fclose.o)
 .text          0x00000000        0x0 c:/siliconlabs/simplicitystudio/v4/developer/toolchains/gnu_arm/4.9_2015q3/bin/../lib/gcc/arm-none-eabi/4.9.3/../../../../arm-none-eabi/lib/armv7e-m/fpu\libc.a(lib_a-fputwc.o)
 .data          0x00000000        0x0 c:/siliconlabs/simplicitystudio/v4/developer/toolchains/gnu_arm/4.9_2015q3/bin/../lib/gcc/arm-none-eabi/4.9.3/../../../../arm-none-eabi/lib/armv7e-m/fpu\libc.a(lib_a-fputwc.o)
 .bss           0x00000000        0x0 c:/siliconlabs/simplicitystudio/v4/developer/toolchains/gnu_arm/4.9_2015q3/bin/../lib/gcc/arm-none-eabi/4.9.3/../../../../arm-none-eabi/lib/armv7e-m/fpu\libc.a(lib_a-fputwc.o)
 .text.fputwc   0x00000000       0x28 c:/siliconlabs/simplicitystudio/v4/developer/toolchains/gnu_arm/4.9_2015q3/bin/../lib/gcc/arm-none-eabi/4.9.3/../../../../arm-none-eabi/lib/armv7e-m/fpu\libc.a(lib_a-fputwc.o)
 .text          0x00000000        0x0 c:/siliconlabs/simplicitystudio/v4/developer/toolchains/gnu_arm/4.9_2015q3/bin/../lib/gcc/arm-none-eabi/4.9.3/../../../../arm-none-eabi/lib/armv7e-m/fpu\libc.a(lib_a-fstatr.o)
 .data          0x00000000        0x0 c:/siliconlabs/simplicitystudio/v4/developer/toolchains/gnu_arm/4.9_2015q3/bin/../lib/gcc/arm-none-eabi/4.9.3/../../../../arm-none-eabi/lib/armv7e-m/fpu\libc.a(lib_a-fstatr.o)
 .bss           0x00000000        0x0 c:/siliconlabs/simplicitystudio/v4/developer/toolchains/gnu_arm/4.9_2015q3/bin/../lib/gcc/arm-none-eabi/4.9.3/../../../../arm-none-eabi/lib/armv7e-m/fpu\libc.a(lib_a-fstatr.o)
 .text          0x00000000        0x0 c:/siliconlabs/simplicitystudio/v4/developer/toolchains/gnu_arm/4.9_2015q3/bin/../lib/gcc/arm-none-eabi/4.9.3/../../../../arm-none-eabi/lib/armv7e-m/fpu\libc.a(lib_a-isattyr.o)
 .data          0x00000000        0x0 c:/siliconlabs/simplicitystudio/v4/developer/toolchains/gnu_arm/4.9_2015q3/bin/../lib/gcc/arm-none-eabi/4.9.3/../../../../arm-none-eabi/lib/armv7e-m/fpu\libc.a(lib_a-isattyr.o)
 .bss           0x00000000        0x0 c:/siliconlabs/simplicitystudio/v4/developer/toolchains/gnu_arm/4.9_2015q3/bin/../lib/gcc/arm-none-eabi/4.9.3/../../../../arm-none-eabi/lib/armv7e-m/fpu\libc.a(lib_a-isattyr.o)
 .text          0x00000000        0x0 c:/siliconlabs/simplicitystudio/v4/developer/toolchains/gnu_arm/4.9_2015q3/bin/../lib/gcc/arm-none-eabi/4.9.3/../../../../arm-none-eabi/lib/armv7e-m/fpu\libc.a(lib_a-lseekr.o)
 .data          0x00000000        0x0 c:/siliconlabs/simplicitystudio/v4/developer/toolchains/gnu_arm/4.9_2015q3/bin/../lib/gcc/arm-none-eabi/4.9.3/../../../../arm-none-eabi/lib/armv7e-m/fpu\libc.a(lib_a-lseekr.o)
 .bss           0x00000000        0x0 c:/siliconlabs/simplicitystudio/v4/developer/toolchains/gnu_arm/4.9_2015q3/bin/../lib/gcc/arm-none-eabi/4.9.3/../../../../arm-none-eabi/lib/armv7e-m/fpu\libc.a(lib_a-lseekr.o)
 .text          0x00000000        0x0 c:/siliconlabs/simplicitystudio/v4/developer/toolchains/gnu_arm/4.9_2015q3/bin/../lib/gcc/arm-none-eabi/4.9.3/../../../../arm-none-eabi/lib/armv7e-m/fpu\libc.a(lib_a-readr.o)
 .data          0x00000000        0x0 c:/siliconlabs/simplicitystudio/v4/developer/toolchains/gnu_arm/4.9_2015q3/bin/../lib/gcc/arm-none-eabi/4.9.3/../../../../arm-none-eabi/lib/armv7e-m/fpu\libc.a(lib_a-readr.o)
 .bss           0x00000000        0x0 c:/siliconlabs/simplicitystudio/v4/developer/toolchains/gnu_arm/4.9_2015q3/bin/../lib/gcc/arm-none-eabi/4.9.3/../../../../arm-none-eabi/lib/armv7e-m/fpu\libc.a(lib_a-readr.o)
 .text          0x00000000        0x0 c:/siliconlabs/simplicitystudio/v4/developer/toolchains/gnu_arm/4.9_2015q3/bin/../lib/gcc/arm-none-eabi/4.9.3/../../../../arm-none-eabi/lib/armv7e-m/fpu\libc.a(lib_a-reent.o)
 .data          0x00000000        0x0 c:/siliconlabs/simplicitystudio/v4/developer/toolchains/gnu_arm/4.9_2015q3/bin/../lib/gcc/arm-none-eabi/4.9.3/../../../../arm-none-eabi/lib/armv7e-m/fpu\libc.a(lib_a-reent.o)
 .bss           0x00000000        0x0 c:/siliconlabs/simplicitystudio/v4/developer/toolchains/gnu_arm/4.9_2015q3/bin/../lib/gcc/arm-none-eabi/4.9.3/../../../../arm-none-eabi/lib/armv7e-m/fpu\libc.a(lib_a-reent.o)
 .text.cleanup_glue
                0x00000000       0x1c c:/siliconlabs/simplicitystudio/v4/developer/toolchains/gnu_arm/4.9_2015q3/bin/../lib/gcc/arm-none-eabi/4.9.3/../../../../arm-none-eabi/lib/armv7e-m/fpu\libc.a(lib_a-reent.o)
 .text._reclaim_reent
                0x00000000       0x88 c:/siliconlabs/simplicitystudio/v4/developer/toolchains/gnu_arm/4.9_2015q3/bin/../lib/gcc/arm-none-eabi/4.9.3/../../../../arm-none-eabi/lib/armv7e-m/fpu\libc.a(lib_a-reent.o)
 .text          0x00000000        0x0 c:/siliconlabs/simplicitystudio/v4/developer/toolchains/gnu_arm/4.9_2015q3/bin/../lib/gcc/arm-none-eabi/4.9.3/../../../../arm-none-eabi/lib/armv7e-m/fpu\libc.a(lib_a-wbuf.o)
 .data          0x00000000        0x0 c:/siliconlabs/simplicitystudio/v4/developer/toolchains/gnu_arm/4.9_2015q3/bin/../lib/gcc/arm-none-eabi/4.9.3/../../../../arm-none-eabi/lib/armv7e-m/fpu\libc.a(lib_a-wbuf.o)
 .bss           0x00000000        0x0 c:/siliconlabs/simplicitystudio/v4/developer/toolchains/gnu_arm/4.9_2015q3/bin/../lib/gcc/arm-none-eabi/4.9.3/../../../../arm-none-eabi/lib/armv7e-m/fpu\libc.a(lib_a-wbuf.o)
 .text.__swbuf  0x00000000       0x10 c:/siliconlabs/simplicitystudio/v4/developer/toolchains/gnu_arm/4.9_2015q3/bin/../lib/gcc/arm-none-eabi/4.9.3/../../../../arm-none-eabi/lib/armv7e-m/fpu\libc.a(lib_a-wbuf.o)
 .text          0x00000000        0x0 c:/siliconlabs/simplicitystudio/v4/developer/toolchains/gnu_arm/4.9_2015q3/bin/../lib/gcc/arm-none-eabi/4.9.3/../../../../arm-none-eabi/lib/armv7e-m/fpu\libc.a(lib_a-wcrtomb.o)
 .data          0x00000000        0x0 c:/siliconlabs/simplicitystudio/v4/developer/toolchains/gnu_arm/4.9_2015q3/bin/../lib/gcc/arm-none-eabi/4.9.3/../../../../arm-none-eabi/lib/armv7e-m/fpu\libc.a(lib_a-wcrtomb.o)
 .bss           0x00000000        0x0 c:/siliconlabs/simplicitystudio/v4/developer/toolchains/gnu_arm/4.9_2015q3/bin/../lib/gcc/arm-none-eabi/4.9.3/../../../../arm-none-eabi/lib/armv7e-m/fpu\libc.a(lib_a-wcrtomb.o)
 .text.wcrtomb  0x00000000       0x58 c:/siliconlabs/simplicitystudio/v4/developer/toolchains/gnu_arm/4.9_2015q3/bin/../lib/gcc/arm-none-eabi/4.9.3/../../../../arm-none-eabi/lib/armv7e-m/fpu\libc.a(lib_a-wcrtomb.o)
 .text          0x00000000        0x0 c:/siliconlabs/simplicitystudio/v4/developer/toolchains/gnu_arm/4.9_2015q3/bin/../lib/gcc/arm-none-eabi/4.9.3/../../../../arm-none-eabi/lib/armv7e-m/fpu\libc.a(lib_a-wctomb_r.o)
 .data          0x00000000        0x0 c:/siliconlabs/simplicitystudio/v4/developer/toolchains/gnu_arm/4.9_2015q3/bin/../lib/gcc/arm-none-eabi/4.9.3/../../../../arm-none-eabi/lib/armv7e-m/fpu\libc.a(lib_a-wctomb_r.o)
 .bss           0x00000000        0x0 c:/siliconlabs/simplicitystudio/v4/developer/toolchains/gnu_arm/4.9_2015q3/bin/../lib/gcc/arm-none-eabi/4.9.3/../../../../arm-none-eabi/lib/armv7e-m/fpu\libc.a(lib_a-wctomb_r.o)
 .text._wctomb_r
                0x00000000       0x30 c:/siliconlabs/simplicitystudio/v4/developer/toolchains/gnu_arm/4.9_2015q3/bin/../lib/gcc/arm-none-eabi/4.9.3/../../../../arm-none-eabi/lib/armv7e-m/fpu\libc.a(lib_a-wctomb_r.o)
 .text          0x00000000        0x0 c:/siliconlabs/simplicitystudio/v4/developer/toolchains/gnu_arm/4.9_2015q3/bin/../lib/gcc/arm-none-eabi/4.9.3/armv7e-m/fpu/crtend.o
 .data          0x00000000        0x0 c:/siliconlabs/simplicitystudio/v4/developer/toolchains/gnu_arm/4.9_2015q3/bin/../lib/gcc/arm-none-eabi/4.9.3/armv7e-m/fpu/crtend.o
 .bss           0x00000000        0x0 c:/siliconlabs/simplicitystudio/v4/developer/toolchains/gnu_arm/4.9_2015q3/bin/../lib/gcc/arm-none-eabi/4.9.3/armv7e-m/fpu/crtend.o
 .text          0x00000000        0x0 c:/siliconlabs/simplicitystudio/v4/developer/toolchains/gnu_arm/4.9_2015q3/bin/../lib/gcc/arm-none-eabi/4.9.3/armv7e-m/fpu/crtn.o
 .data          0x00000000        0x0 c:/siliconlabs/simplicitystudio/v4/developer/toolchains/gnu_arm/4.9_2015q3/bin/../lib/gcc/arm-none-eabi/4.9.3/armv7e-m/fpu/crtn.o
 .bss           0x00000000        0x0 c:/siliconlabs/simplicitystudio/v4/developer/toolchains/gnu_arm/4.9_2015q3/bin/../lib/gcc/arm-none-eabi/4.9.3/armv7e-m/fpu/crtn.o

Memory Configuration

Name             Origin             Length             Attributes
FLASH_BOOTLOADER 0x00000000         0x00004000         xr
FLASH            0x00004000         0x0003b000         xr
RAM              0x20003000         0x00004bfc         xrw
*default*        0x00000000         0xffffffff

Linker script and memory map

LOAD c:/siliconlabs/simplicitystudio/v4/developer/toolchains/gnu_arm/4.9_2015q3/bin/../lib/gcc/arm-none-eabi/4.9.3/armv7e-m/fpu/crti.o
LOAD c:/siliconlabs/simplicitystudio/v4/developer/toolchains/gnu_arm/4.9_2015q3/bin/../lib/gcc/arm-none-eabi/4.9.3/armv7e-m/fpu/crtbegin.o
LOAD c:/siliconlabs/simplicitystudio/v4/developer/toolchains/gnu_arm/4.9_2015q3/bin/../lib/gcc/arm-none-eabi/4.9.3/../../../../arm-none-eabi/lib/armv7e-m/fpu/crt0.o
LOAD ./advertisement-callback.o
LOAD ./aio.o
LOAD ./app.o
LOAD ./app_ble.o
LOAD ./app_ble_adv.o
LOAD ./app_callback.o
LOAD ./application_properties.o
LOAD ./batt.o
LOAD ./connection-callback.o
LOAD ./connection.o
LOAD ./es.o
LOAD ./gatt_db.o
LOAD ./iaq.o
LOAD ./imus.o
LOAD ./main.o
LOAD ./power.o
LOAD ./pti.o
LOAD ./radio_ble.o
LOAD ./ui.o
LOAD ./hardware/kit/common/bsp/bsp_stk.o
LOAD ./hardware/kit/common/bsp/thunderboard/bap.o
LOAD ./hardware/kit/common/bsp/thunderboard/board_4160.o
LOAD ./hardware/kit/common/bsp/thunderboard/ccs811.o
LOAD ./hardware/kit/common/bsp/thunderboard/icm20648.o
LOAD ./hardware/kit/common/bsp/thunderboard/mic.o
LOAD ./hardware/kit/common/bsp/thunderboard/si1133.o
LOAD ./hardware/kit/common/bsp/thunderboard/si7021.o
LOAD ./hardware/kit/common/bsp/thunderboard/util.o
LOAD ./hardware/kit/common/bsp/thunderboard/util_supply.o
LOAD ./hardware/kit/common/bsp/thunderboard/bosch/BMP280_driver/bmp280.o
LOAD ./hardware/kit/common/bsp/thunderboard/imu/imu.o
LOAD ./hardware/kit/common/bsp/thunderboard/imu/imu_dcm.o
LOAD ./hardware/kit/common/bsp/thunderboard/imu/imu_fuse.o
LOAD ./hardware/kit/common/bsp/thunderboard/imu/imu_math.o
LOAD ./hardware/kit/common/bsp/thunderboard/rfs/rfs.o
LOAD ./hardware/kit/common/drivers/i2cspm.o
LOAD ./hardware/kit/common/drivers/retargetio.o
LOAD ./hardware/kit/common/drivers/retargetserial.o
LOAD ./platform/Device/SiliconLabs/EFR32MG1P/Source/GCC/startup_efr32mg1p.o
LOAD ./platform/emdrv/dmadrv/src/dmadrv.o
LOAD ./platform/emdrv/gpiointerrupt/src/gpiointerrupt.o
LOAD ./platform/emlib/src/em_adc.o
LOAD ./platform/emlib/src/em_cmu.o
LOAD ./platform/emlib/src/em_cryotimer.o
LOAD ./platform/emlib/src/em_gpio.o
LOAD ./platform/emlib/src/em_i2c.o
LOAD ./platform/emlib/src/em_ldma.o
LOAD ./platform/emlib/src/em_letimer.o
LOAD ./platform/emlib/src/em_leuart.o
LOAD ./platform/emlib/src/em_msc.o
LOAD ./platform/emlib/src/em_prs.o
LOAD ./platform/emlib/src/em_rtcc.o
LOAD ./platform/emlib/src/em_system.o
LOAD ./platform/emlib/src/em_timer.o
LOAD ./platform/emlib/src/em_usart.o
LOAD C:\Users\admin\SimplicityStudio\v4_workspace\soc-thunderboard-sense\protocol\bluetooth_2.6\lib\EFR32MG1P\EABI\binstack.o
LOAD C:\Users\admin\SimplicityStudio\v4_workspace\soc-thunderboard-sense\protocol\bluetooth_2.6\lib\EFR32MG1P\EABI\stack.a
LOAD C:\Users\admin\SimplicityStudio\v4_workspace\soc-thunderboard-sense\protocol\bluetooth_2.6\lib\EFR32MG1P\EABI\binbootloader.o
LOAD C:\Users\admin\SimplicityStudio\v4_workspace\soc-thunderboard-sense\protocol\bluetooth_2.6\lib\EFR32MG1P\GCC\bgapi.a
LOAD c:/siliconlabs/simplicitystudio/v4/developer/toolchains/gnu_arm/4.9_2015q3/bin/../lib/gcc/arm-none-eabi/4.9.3/../../../../arm-none-eabi/lib/armv7e-m/fpu\libm.a
START GROUP
LOAD c:/siliconlabs/simplicitystudio/v4/developer/toolchains/gnu_arm/4.9_2015q3/bin/../lib/gcc/arm-none-eabi/4.9.3/armv7e-m/fpu\libgcc.a
LOAD c:/siliconlabs/simplicitystudio/v4/developer/toolchains/gnu_arm/4.9_2015q3/bin/../lib/gcc/arm-none-eabi/4.9.3/../../../../arm-none-eabi/lib/armv7e-m/fpu\libc.a
LOAD c:/siliconlabs/simplicitystudio/v4/developer/toolchains/gnu_arm/4.9_2015q3/bin/../lib/gcc/arm-none-eabi/4.9.3/../../../../arm-none-eabi/lib/armv7e-m/fpu\libnosys.a
END GROUP
START GROUP
LOAD c:/siliconlabs/simplicitystudio/v4/developer/toolchains/gnu_arm/4.9_2015q3/bin/../lib/gcc/arm-none-eabi/4.9.3/armv7e-m/fpu\libgcc.a
LOAD c:/siliconlabs/simplicitystudio/v4/developer/toolchains/gnu_arm/4.9_2015q3/bin/../lib/gcc/arm-none-eabi/4.9.3/../../../../arm-none-eabi/lib/armv7e-m/fpu\libg.a
LOAD c:/siliconlabs/simplicitystudio/v4/developer/toolchains/gnu_arm/4.9_2015q3/bin/../lib/gcc/arm-none-eabi/4.9.3/../../../../arm-none-eabi/lib/armv7e-m/fpu\libc.a
END GROUP
LOAD c:/siliconlabs/simplicitystudio/v4/developer/toolchains/gnu_arm/4.9_2015q3/bin/../lib/gcc/arm-none-eabi/4.9.3/armv7e-m/fpu/crtend.o
LOAD c:/siliconlabs/simplicitystudio/v4/developer/toolchains/gnu_arm/4.9_2015q3/bin/../lib/gcc/arm-none-eabi/4.9.3/armv7e-m/fpu/crtn.o

.text_bootloader
                0x00000000     0x4000
 *(.binbootloader*)
 .binbootloader
                0x00000000      0x31c C:\Users\admin\SimplicityStudio\v4_workspace\soc-thunderboard-sense\protocol\bluetooth_2.6\lib\EFR32MG1P\EABI\binbootloader.o
                0x00004000                . = ALIGN (0x4000)
 *fill*         0x0000031c     0x3ce4 

.text_stack_bin
                0x00004000    0x1d681
 *(.binstack*)
 .binstack      0x00004000    0x1d681 C:\Users\admin\SimplicityStudio\v4_workspace\soc-thunderboard-sense\protocol\bluetooth_2.6\lib\EFR32MG1P\EABI\binstack.o

.text_signature
                0x00021681      0x17f
                0x000216c1                . = (. + 0x40)
 *fill*         0x00021681       0x40 
                0x00021800                . = ALIGN (0x800)
 *fill*         0x000216c1      0x13f 
                0x00021800                __text_start__ = .

.text_app       0x00021800    0x13994
 *(.AAT)
 .AAT           0x00021800       0x80 ./main.o
                0x00021800                AppAddressTable
 *(.vectors)
 .vectors       0x00021880       0xc8 ./platform/Device/SiliconLabs/EFR32MG1P/Source/GCC/startup_efr32mg1p.o
                0x00021880                __Vectors
                0x00021948                __Vectors_End = .
                0x000000c8                __Vectors_Size = (__Vectors_End - __Vectors)
                0x00021948                __end__ = .
 *(.gecko_configuration)
 *(.xo_configuration)
 *(.gatt_header)
 .gatt_header   0x00021948       0x34 ./gatt_db.o
                0x00021948                bg_gattdb_data
 *(.gatt_data)
 .gatt_data     0x0002197c      0x8ea ./gatt_db.o
                0x0002197c                bg_gattdb_data_adv_uuid128_map
                0x00021980                bg_gattdb_data_adv_uuid16_map
                0x00021984                bg_gattdb_data_attributes_dynamic_mapping_map
                0x000219bc                bg_gattdb_data_attributes_map
                0x00021db8                bg_gattdb_data_attribute_field_0
                0x00021dbc                bg_gattdb_data_attribute_field_1
                0x00021dc4                bg_gattdb_data_attribute_field_2
                0x00021dcc                bg_gattdb_data_attribute_field_3
                0x00021dd4                bg_gattdb_data_attribute_field_4
                0x00021dd8                bg_gattdb_data_attribute_field_5
                0x00021ddc                bg_gattdb_data_attribute_field_6
                0x00021de4                bg_gattdb_data_attribute_field_7
                0x00021dec                bg_gattdb_data_attribute_field_9
                0x00021df0                bg_gattdb_data_attribute_field_10
                0x00021df8                bg_gattdb_data_attribute_field_11
                0x00021e10                bg_gattdb_data_attribute_field_12
                0x00021e18                bg_gattdb_data_attribute_field_13
                0x00021e24                bg_gattdb_data_attribute_field_14
                0x00021e2c                bg_gattdb_data_attribute_field_15
                0x00021e34                bg_gattdb_data_attribute_field_16
                0x00021e3c                bg_gattdb_data_attribute_field_17
                0x00021e44                bg_gattdb_data_attribute_field_18
                0x00021e4c                bg_gattdb_data_attribute_field_19
                0x00021e54                bg_gattdb_data_attribute_field_20
                0x00021e5c                bg_gattdb_data_attribute_field_21
                0x00021e64                bg_gattdb_data_attribute_field_22
                0x00021e68                bg_gattdb_data_attribute_field_23
                0x00021e70                bg_gattdb_data_attribute_field_24
                0x00021e78                bg_gattdb_data_attribute_field_26
                0x00021e7c                bg_gattdb_data_attribute_field_27
                0x00021e84                bg_gattdb_data_attribute_field_28
                0x00021e8c                bg_gattdb_data_attribute_field_29
                0x00021e94                bg_gattdb_data_attribute_field_30
                0x00021e9c                bg_gattdb_data_attribute_field_31
                0x00021ea4                bg_gattdb_data_attribute_field_32
                0x00021eac                bg_gattdb_data_attribute_field_33
                0x00021eb4                bg_gattdb_data_attribute_field_34
                0x00021ebc                bg_gattdb_data_attribute_field_35
                0x00021ed4                bg_gattdb_data_attribute_field_36
                0x00021edc                bg_gattdb_data_attribute_field_37
                0x00021ef4                bg_gattdb_data_attribute_field_38
                0x00021efc                bg_gattdb_data_attribute_field_39
                0x00021f14                bg_gattdb_data_attribute_field_40
                0x00021f1c                bg_gattdb_data_attribute_field_42
                0x00021f30                bg_gattdb_data_attribute_field_43
                0x00021f48                bg_gattdb_data_attribute_field_44
                0x00021f50                bg_gattdb_data_attribute_field_45
                0x00021f64                bg_gattdb_data_attribute_field_46
                0x00021f7c                bg_gattdb_data_attribute_field_47
                0x00021f84                bg_gattdb_data_attribute_field_48
                0x00021f9c                bg_gattdb_data_attribute_field_49
                0x00021fa4                bg_gattdb_data_attribute_field_50
                0x00021fbc                bg_gattdb_data_attribute_field_51
                0x00021fc4                bg_gattdb_data_attribute_field_53
                0x00021fd8                bg_gattdb_data_attribute_field_54
                0x00021ff0                bg_gattdb_data_attribute_field_55
                0x00021ff8                bg_gattdb_data_attribute_field_56
                0x00022010                bg_gattdb_data_attribute_field_57
                0x00022018                bg_gattdb_data_attribute_field_59
                0x00022030                bg_gattdb_data_attribute_field_60
                0x00022038                bg_gattdb_data_attribute_field_62
                0x00022050                bg_gattdb_data_attribute_field_63
                0x00022058                bg_gattdb_data_attribute_field_65
                0x0002205c                bg_gattdb_data_attribute_field_66
                0x00022064                bg_gattdb_data_attribute_field_67
                0x0002206c                bg_gattdb_data_attribute_field_69
                0x00022078                bg_gattdb_data_attribute_field_70
                0x0002207c                bg_gattdb_data_attribute_field_71
                0x00022084                bg_gattdb_data_attribute_field_72
                0x0002208c                bg_gattdb_data_attribute_field_73
                0x00022098                bg_gattdb_data_attribute_field_74
                0x0002209c                bg_gattdb_data_attribute_field_75
                0x000220b0                bg_gattdb_data_attribute_field_76
                0x000220c8                bg_gattdb_data_attribute_field_77
                0x000220d0                bg_gattdb_data_attribute_field_79
                0x000220e8                bg_gattdb_data_attribute_field_80
                0x000220f0                bg_gattdb_data_attribute_field_82
                0x00022108                bg_gattdb_data_attribute_field_83
                0x00022110                bg_gattdb_data_uuidtable_128_map
                0x00022230                bg_gattdb_data_uuidtable_16_map
 *(.application_properties)
 *fill*         0x00022266        0x2 
 .application_properties
                0x00022268       0x38 ./application_properties.o
                0x00022268                applicationProperties
 *(.text*)
 .text          0x000222a0       0x5c c:/siliconlabs/simplicitystudio/v4/developer/toolchains/gnu_arm/4.9_2015q3/bin/../lib/gcc/arm-none-eabi/4.9.3/armv7e-m/fpu/crtbegin.o
 .text          0x000222fc       0x74 c:/siliconlabs/simplicitystudio/v4/developer/toolchains/gnu_arm/4.9_2015q3/bin/../lib/gcc/arm-none-eabi/4.9.3/../../../../arm-none-eabi/lib/armv7e-m/fpu/crt0.o
                0x000222fc                _start
                0x000222fc                _mainCRTStartup
 .text.advertisingStartedCallback
                0x00022370        0xc ./advertisement-callback.o
                0x00022370                advertisingStartedCallback
 .text.aioDeviceDigitalInRead
                0x0002237c       0x30 ./aio.o
 .text.aioDigitalInCharStatusChange
                0x000223ac       0x24 ./aio.o
                0x000223ac                aioDigitalInCharStatusChange
 .text.aioDigitalOutWrite
                0x000223d0       0x78 ./aio.o
                0x000223d0                aioDigitalOutWrite
 .text.aioDigitalOutRead
                0x00022448       0x58 ./aio.o
                0x00022448                aioDigitalOutRead
 .text.aioDigitalInUpdate
                0x000224a0       0x50 ./aio.o
                0x000224a0                aioDigitalInUpdate
 .text.aioDigitalInRead
                0x000224f0       0x48 ./aio.o
                0x000224f0                aioDigitalInRead
 .text.aioLEDWasDisabled
                0x00022538        0xc ./aio.o
                0x00022538                aioLEDWasDisabled
 .text.appInit  0x00022544       0xa8 ./app.o
                0x00022544                appInit
 .text.appServiceStart
                0x000225ec        0x4 ./app.o
                0x000225ec                appServiceStart
 .text.appServiceStop
                0x000225f0        0x4 ./app.o
                0x000225f0                appServiceStop
 .text.appHandleEvents
                0x000225f4      0x2ec ./app.o
                0x000225f4                appHandleEvents
 .text.bleDeviceNameRead
                0x000228e0       0x6c ./app_ble.o
 .text.appBleInit
                0x0002294c      0x248 ./app_ble.o
                0x0002294c                appBleInit
 .text.appCfgConnectionClosedEvent
                0x00022b94       0x18 ./app_ble.o
                0x00022b94                appCfgConnectionClosedEvent
 .text.appCfgResetEvent
                0x00022bac       0x1c ./app_ble.o
                0x00022bac                appCfgResetEvent
 .text.appCfgConnectionOpenedEvent
                0x00022bc8        0x4 ./app_ble.o
                0x00022bc8                appCfgConnectionOpenedEvent
 .text.appCfgGattProcCompEvent
                0x00022bcc        0x4 ./app_ble.o
                0x00022bcc                appCfgGattProcCompEvent
 .text.appCfgGattBondedEvent
                0x00022bd0        0x4 ./app_ble.o
                0x00022bd0                appCfgGattBondedEvent
 .text.appCfgServiceFoundEvent
                0x00022bd4        0x4 ./app_ble.o
                0x00022bd4                appCfgServiceFoundEvent
 .text.appCfgChrFoundEvent
                0x00022bd8        0x4 ./app_ble.o
                0x00022bd8                appCfgChrFoundEvent
 .text.appCfgChrValueReceivedEvent
                0x00022bdc        0x4 ./app_ble.o
                0x00022bdc                appCfgChrValueReceivedEvent
 .text.appCfgScanResponse
                0x00022be0        0x4 ./app_ble.o
                0x00022be0                appCfgScanResponse
 .text.appBleAdvSetDevName
                0x00022be4       0x2c ./app_ble_adv.o
                0x00022be4                appBleAdvSetDevName
 .text.appBleDataConfig.part.1
                0x00022c10       0xb0 ./app_ble_adv.o
 .text.appBleAdvInit
                0x00022cc0       0x70 ./app_ble_adv.o
                0x00022cc0                appBleAdvInit
 .text.advInit  0x00022d30       0x4c ./app_ble_adv.o
                0x00022d30                advInit
 .text.appBleAdvSetId
                0x00022d7c       0x14 ./app_ble_adv.o
                0x00022d7c                appBleAdvSetId
 .text.appBleAdvStart
                0x00022d90       0x50 ./app_ble_adv.o
                0x00022d90                appBleAdvStart
 .text.appBleAdvStop
                0x00022de0       0x48 ./app_ble_adv.o
                0x00022de0                appBleAdvStop
 .text.appBleAdvEventHandler
                0x00022e28       0xc0 ./app_ble_adv.o
                0x00022e28                appBleAdvEventHandler
 .text.appBleAdvIsActive
                0x00022ee8        0xc ./app_ble_adv.o
                0x00022ee8                appBleAdvIsActive
 .text.resetEventCallback
                0x00022ef4        0xc ./app_callback.o
                0x00022ef4                resetEventCallback
 .text.appHwReadBatteryLevel
                0x00022f00       0xa4 ./batt.o
 .text.battInit
                0x00022fa4       0x28 ./batt.o
                0x00022fa4                battInit
 .text.battMeasure
                0x00022fcc       0x44 ./batt.o
                0x00022fcc                battMeasure
 .text.battCharStatusChange
                0x00023010       0x50 ./batt.o
                0x00023010                battCharStatusChange
 .text.battRead
                0x00023060       0x50 ./batt.o
                0x00023060                battRead
 .text.connectionOpenedEventCallback
                0x000230b0       0x18 ./connection-callback.o
                0x000230b0                connectionOpenedEventCallback
 .text.connectionTerminatedEventCallback
                0x000230c8       0x18 ./connection-callback.o
                0x000230c8                connectionTerminatedEventCallback
 .text.conConnectionInit
                0x000230e0       0x1c ./connection.o
                0x000230e0                conConnectionInit
 .text.conConnectionStarted
                0x000230fc        0xc ./connection.o
                0x000230fc                conConnectionStarted
 .text.conConnectionClosed
                0x00023108       0x10 ./connection.o
                0x00023108                conConnectionClosed
 .text.conGetConnectionId
                0x00023118        0xc ./connection.o
                0x00023118                conGetConnectionId
 .text.esReadUVIndex
                0x00023124       0x4c ./es.o
                0x00023124                esReadUVIndex
 .text.esReadPressure
                0x00023170       0x74 ./es.o
                0x00023170                esReadPressure
 .text.esReadTemperature
                0x000231e4       0x8c ./es.o
                0x000231e4                esReadTemperature
 .text.esReadHumidity
                0x00023270       0x84 ./es.o
                0x00023270                esReadHumidity
 .text.esReadAmbientLight
                0x000232f4       0x6c ./es.o
                0x000232f4                esReadAmbientLight
 .text.esReadSoundLevel
                0x00023360       0x88 ./es.o
                0x00023360                esReadSoundLevel
 .text.esControlPointChange
                0x000233e8       0x10 ./es.o
                0x000233e8                esControlPointChange
 .text.esControlPointWrite
                0x000233f8       0x50 ./es.o
                0x000233f8                esControlPointWrite
 .text.iaqReadECO2
                0x00023448       0x5c ./iaq.o
                0x00023448                iaqReadECO2
 .text.iaqReadTVOC
                0x000234a4       0x5c ./iaq.o
                0x000234a4                iaqReadTVOC
 .text.iaqControlPointChange
                0x00023500       0x38 ./iaq.o
                0x00023500                iaqControlPointChange
 .text.iaqControlPointWrite
                0x00023538       0x50 ./iaq.o
                0x00023538                iaqControlPointWrite
 .text.handleDeviceInitDeinit
                0x00023588       0x44 ./imus.o
 .text.imuSendCalibrateDone
                0x000235cc       0x4c ./imus.o
 .text.imuServiceStart
                0x00023618        0x4 ./imus.o
                0x00023618                imuServiceStart
 .text.imuIsAccelerationNotification
                0x0002361c        0xc ./imus.o
                0x0002361c                imuIsAccelerationNotification
 .text.imuIsOrientationNotification
                0x00023628        0xc ./imus.o
                0x00023628                imuIsOrientationNotification
 .text.imuConnectionClosed
                0x00023634       0x50 ./imus.o
                0x00023634                imuConnectionClosed
 .text.imuServiceStop
                0x00023684        0x4 ./imus.o
                0x00023684                imuServiceStop
 .text.imuAccelerationStatusChange
                0x00023688       0x70 ./imus.o
                0x00023688                imuAccelerationStatusChange
 .text.imuOrientationStatusChange
                0x000236f8       0x70 ./imus.o
                0x000236f8                imuOrientationStatusChange
 .text.imuAccelerationTimerEvtHandler
                0x00023768       0x8c ./imus.o
                0x00023768                imuAccelerationTimerEvtHandler
 .text.imuOrientationTimerEvtHandler
                0x000237f4       0x8c ./imus.o
                0x000237f4                imuOrientationTimerEvtHandler
 .text.imuControlPointStatusChange
                0x00023880       0x24 ./imus.o
                0x00023880                imuControlPointStatusChange
 .text.imuControlPointWrite
                0x000238a4       0xf0 ./imus.o
                0x000238a4                imuControlPointWrite
 .text.MAIN_initSensors
                0x00023994       0x80 ./main.o
                0x00023994                MAIN_initSensors
 .text.startup.main
                0x00023a14      0x2d0 ./main.o
                0x00023a14                main
 .text.MAIN_deInitSensors
                0x00023ce4       0x40 ./main.o
                0x00023ce4                MAIN_deInitSensors
 .text.powerSourceTypeRead
                0x00023d24       0x3c ./power.o
                0x00023d24                powerSourceTypeRead
 .text.advBlink
                0x00023d60       0x34 ./radio_ble.o
                0x00023d60                advBlink
 .text.RADIO_readImuData
                0x00023d94       0x44 ./radio_ble.o
                0x00023d94                RADIO_readImuData
 .text.RADIO_bleStackLoopIteration
                0x00023dd8      0x258 ./radio_ble.o
                0x00023dd8                RADIO_bleStackLoopIteration
 .text.RADIO_bleChipInit
                0x00024030       0xfc ./radio_ble.o
                0x00024030                RADIO_bleChipInit
 .text.RADIO_bleStackInit
                0x0002412c       0x74 ./radio_ble.o
                0x0002412c                RADIO_bleStackInit
 .text.uiReadButtons
                0x000241a0       0x50 ./ui.o
                0x000241a0                uiReadButtons
 .text.uiLEDWrite
                0x000241f0       0x40 ./ui.o
                0x000241f0                uiLEDWrite
 .text.uiRGBLEDWrite
                0x00024230       0xa8 ./ui.o
                0x00024230                uiRGBLEDWrite
 .text.uiRGBLEDRead
                0x000242d8       0x58 ./ui.o
                0x000242d8                uiRGBLEDRead
 .text.uiRGBLEDWasDisabled
                0x00024330        0xc ./ui.o
                0x00024330                uiRGBLEDWasDisabled
 .text.i2cBusRead
                0x0002433c       0x48 ./hardware/kit/common/bsp/thunderboard/bap.o
 .text.i2cBusWrite
                0x00024384       0x48 ./hardware/kit/common/bsp/thunderboard/bap.o
 .text.BAP_init
                0x000243cc       0xb0 ./hardware/kit/common/bsp/thunderboard/bap.o
                0x000243cc                BAP_init
 .text.BAP_deInit
                0x0002447c       0x14 ./hardware/kit/common/bsp/thunderboard/bap.o
                0x0002447c                BAP_deInit
 .text.BAP_getPressure
                0x00024490       0x68 ./hardware/kit/common/bsp/thunderboard/bap.o
                0x00024490                BAP_getPressure
 .text.gpioInterruptHandler
                0x000244f8       0x30 ./hardware/kit/common/bsp/thunderboard/board_4160.o
 .text.picWriteReg
                0x00024528       0x58 ./hardware/kit/common/bsp/thunderboard/board_4160.o
 .text.picReadReg
                0x00024580       0x50 ./hardware/kit/common/bsp/thunderboard/board_4160.o
 .text.BOARD_flashDeepPowerDown
                0x000245d0       0xf8 ./hardware/kit/common/bsp/thunderboard/board_4160.o
                0x000245d0                BOARD_flashDeepPowerDown
 .text.BOARD_pushButtonGetState
                0x000246c8       0x14 ./hardware/kit/common/bsp/thunderboard/board_4160.o
                0x000246c8                BOARD_pushButtonGetState
 .text.BOARD_i2cBusSelect
                0x000246dc        0x4 ./hardware/kit/common/bsp/thunderboard/board_4160.o
                0x000246dc                BOARD_i2cBusSelect
 .text.BOARD_picWriteReg
                0x000246e0       0x7c ./hardware/kit/common/bsp/thunderboard/board_4160.o
                0x000246e0                BOARD_picWriteReg
 .text.BOARD_imuEnable
                0x0002475c       0x28 ./hardware/kit/common/bsp/thunderboard/board_4160.o
                0x0002475c                BOARD_imuEnable
 .text.BOARD_envSensEnable
                0x00024784        0x8 ./hardware/kit/common/bsp/thunderboard/board_4160.o
                0x00024784                BOARD_envSensEnable
 .text.BOARD_bapEnable
                0x0002478c       0x40 ./hardware/kit/common/bsp/thunderboard/board_4160.o
                0x0002478c                BOARD_bapEnable
 .text.BOARD_rhtempEnable
                0x000247cc       0x40 ./hardware/kit/common/bsp/thunderboard/board_4160.o
                0x000247cc                BOARD_rhtempEnable
 .text.BOARD_alsEnable
                0x0002480c       0x40 ./hardware/kit/common/bsp/thunderboard/board_4160.o
                0x0002480c                BOARD_alsEnable
 .text.BOARD_micEnable
                0x0002484c        0x8 ./hardware/kit/common/bsp/thunderboard/board_4160.o
                0x0002484c                BOARD_micEnable
 .text.BOARD_gasSensorEnable
                0x00024854       0x28 ./hardware/kit/common/bsp/thunderboard/board_4160.o
                0x00024854                BOARD_gasSensorEnable
 .text.BOARD_gasSensorWake
                0x0002487c       0x14 ./hardware/kit/common/bsp/thunderboard/board_4160.o
                0x0002487c                BOARD_gasSensorWake
 .text.BOARD_imuClearIRQ
                0x00024890       0x18 ./hardware/kit/common/bsp/thunderboard/board_4160.o
                0x00024890                BOARD_imuClearIRQ
 .text.BOARD_picReadReg
                0x000248a8       0x7c ./hardware/kit/common/bsp/thunderboard/board_4160.o
                0x000248a8                BOARD_picReadReg
 .text.BOARD_picRegBitsSet
                0x00024924       0xb4 ./hardware/kit/common/bsp/thunderboard/board_4160.o
                0x00024924                BOARD_picRegBitsSet
 .text.BOARD_rgbledEnable
                0x000249d8       0x38 ./hardware/kit/common/bsp/thunderboard/board_4160.o
                0x000249d8                BOARD_rgbledEnable
 .text.BOARD_ledSet
                0x00024a10       0x70 ./hardware/kit/common/bsp/thunderboard/board_4160.o
                0x00024a10                BOARD_ledSet
 .text.BOARD_rgbledSetRawColor.part.3
                0x00024a80       0x2c ./hardware/kit/common/bsp/thunderboard/board_4160.o
 .text.BOARD_rgbledSetRawColor
                0x00024aac       0x34 ./hardware/kit/common/bsp/thunderboard/board_4160.o
                0x00024aac                BOARD_rgbledSetRawColor
 .text.BOARD_rgbledSetColor
                0x00024ae0       0x18 ./hardware/kit/common/bsp/thunderboard/board_4160.o
                0x00024ae0                BOARD_rgbledSetColor
 .text.BOARD_imuEnableIRQ
                0x00024af8        0xc ./hardware/kit/common/bsp/thunderboard/board_4160.o
                0x00024af8                BOARD_imuEnableIRQ
 .text.BOARD_picGetDeviceId
                0x00024b04       0x34 ./hardware/kit/common/bsp/thunderboard/board_4160.o
                0x00024b04                BOARD_picGetDeviceId
 .text.BOARD_picGetHwRevision
                0x00024b38       0x18 ./hardware/kit/common/bsp/thunderboard/board_4160.o
                0x00024b38                BOARD_picGetHwRevision
 .text.BOARD_picGetFwRevision
                0x00024b50       0x6c ./hardware/kit/common/bsp/thunderboard/board_4160.o
                0x00024b50                BOARD_picGetFwRevision
 .text.BOARD_init
                0x00024bbc      0x300 ./hardware/kit/common/bsp/thunderboard/board_4160.o
                0x00024bbc                BOARD_init
 .text.BOARD_imuSetIRQCallback
                0x00024ebc       0x1c ./hardware/kit/common/bsp/thunderboard/board_4160.o
                0x00024ebc                BOARD_imuSetIRQCallback
 .text.CCS811_deInit
                0x00024ed8       0x14 ./hardware/kit/common/bsp/thunderboard/ccs811.o
                0x00024ed8                CCS811_deInit
 .text.CCS811_readMailbox
                0x00024eec       0x5c ./hardware/kit/common/bsp/thunderboard/ccs811.o
                0x00024eec                CCS811_readMailbox
 .text.CCS811_init
                0x00024f48       0x44 ./hardware/kit/common/bsp/thunderboard/ccs811.o
                0x00024f48                CCS811_init
 .text.CCS811_isDataAvailable
                0x00024f8c       0x28 ./hardware/kit/common/bsp/thunderboard/ccs811.o
                0x00024f8c                CCS811_isDataAvailable
 .text.CCS811_startApplication
                0x00024fb4       0x7c ./hardware/kit/common/bsp/thunderboard/ccs811.o
                0x00024fb4                CCS811_startApplication
 .text.CCS811_getMeasurement
                0x00025030       0x7c ./hardware/kit/common/bsp/thunderboard/ccs811.o
                0x00025030                CCS811_getMeasurement
 .text.CCS811_setMeasureMode
                0x000250ac       0x60 ./hardware/kit/common/bsp/thunderboard/ccs811.o
                0x000250ac                CCS811_setMeasureMode
 .text.CCS811_setEnvData
                0x0002510c       0xd4 ./hardware/kit/common/bsp/thunderboard/ccs811.o
                0x0002510c                CCS811_setEnvData
 .text.ICM20648_deInit
                0x000251e0        0xc ./hardware/kit/common/bsp/thunderboard/icm20648.o
                0x000251e0                ICM20648_deInit
 .text.ICM20648_spiInit
                0x000251ec       0xb0 ./hardware/kit/common/bsp/thunderboard/icm20648.o
                0x000251ec                ICM20648_spiInit
 .text.ICM20648_bankSelect
                0x0002529c       0x40 ./hardware/kit/common/bsp/thunderboard/icm20648.o
                0x0002529c                ICM20648_bankSelect
 .text.ICM20648_registerRead
                0x000252dc       0x54 ./hardware/kit/common/bsp/thunderboard/icm20648.o
                0x000252dc                ICM20648_registerRead
 .text.ICM20648_accelResolutionGet
                0x00025330       0x5c ./hardware/kit/common/bsp/thunderboard/icm20648.o
                0x00025330                ICM20648_accelResolutionGet
 .text.ICM20648_accelDataRead
                0x0002538c       0x7c ./hardware/kit/common/bsp/thunderboard/icm20648.o
                0x0002538c                ICM20648_accelDataRead
 .text.ICM20648_gyroResolutionGet
                0x00025408       0x64 ./hardware/kit/common/bsp/thunderboard/icm20648.o
                0x00025408                ICM20648_gyroResolutionGet
 .text.ICM20648_gyroDataRead
                0x0002546c       0x7c ./hardware/kit/common/bsp/thunderboard/icm20648.o
                0x0002546c                ICM20648_gyroDataRead
 .text.ICM20648_interruptStatusRead
                0x000254e8       0x38 ./hardware/kit/common/bsp/thunderboard/icm20648.o
                0x000254e8                ICM20648_interruptStatusRead
 .text.ICM20648_isDataReady
                0x00025520       0x20 ./hardware/kit/common/bsp/thunderboard/icm20648.o
                0x00025520                ICM20648_isDataReady
 .text.ICM20648_getDeviceID
                0x00025540       0x10 ./hardware/kit/common/bsp/thunderboard/icm20648.o
                0x00025540                ICM20648_getDeviceID
 .text.ICM20648_registerWrite
                0x00025550       0x48 ./hardware/kit/common/bsp/thunderboard/icm20648.o
                0x00025550                ICM20648_registerWrite
 .text.ICM20648_reset
                0x00025598       0x14 ./hardware/kit/common/bsp/thunderboard/icm20648.o
                0x00025598                ICM20648_reset
 .text.ICM20648_init
                0x000255ac       0x60 ./hardware/kit/common/bsp/thunderboard/icm20648.o
                0x000255ac                ICM20648_init
 .text.ICM20648_accelFullscaleSet
                0x0002560c       0x38 ./hardware/kit/common/bsp/thunderboard/icm20648.o
                0x0002560c                ICM20648_accelFullscaleSet
 .text.ICM20648_gyroFullscaleSet
                0x00025644       0x38 ./hardware/kit/common/bsp/thunderboard/icm20648.o
                0x00025644                ICM20648_gyroFullscaleSet
 *fill*         0x0002567c        0x4 
 .text.ICM20648_gyroSampleRateSet
                0x00025680       0x98 ./hardware/kit/common/bsp/thunderboard/icm20648.o
                0x00025680                ICM20648_gyroSampleRateSet
 .text.ICM20648_accelSampleRateSet
                0x00025718       0xa8 ./hardware/kit/common/bsp/thunderboard/icm20648.o
                0x00025718                ICM20648_accelSampleRateSet
 .text.ICM20648_gyroBandwidthSet
                0x000257c0       0x38 ./hardware/kit/common/bsp/thunderboard/icm20648.o
                0x000257c0                ICM20648_gyroBandwidthSet
 .text.ICM20648_accelBandwidthSet
                0x000257f8       0x38 ./hardware/kit/common/bsp/thunderboard/icm20648.o
                0x000257f8                ICM20648_accelBandwidthSet
 .text.ICM20648_sleepModeEnable
                0x00025830       0x38 ./hardware/kit/common/bsp/thunderboard/icm20648.o
                0x00025830                ICM20648_sleepModeEnable
 .text.ICM20648_sensorEnable
                0x00025868       0x50 ./hardware/kit/common/bsp/thunderboard/icm20648.o
                0x00025868                ICM20648_sensorEnable
 .text.ICM20648_lowPowerModeEnter
                0x000258b8       0x70 ./hardware/kit/common/bsp/thunderboard/icm20648.o
                0x000258b8                ICM20648_lowPowerModeEnter
 .text.ICM20648_interruptEnable
                0x00025928       0x20 ./hardware/kit/common/bsp/thunderboard/icm20648.o
                0x00025928                ICM20648_interruptEnable
 .text.ICM20648_gyroCalibrate
                0x00025948      0x23c ./hardware/kit/common/bsp/thunderboard/icm20648.o
                0x00025948                ICM20648_gyroCalibrate
 .text.dmaCompleteCallback
                0x00025b84       0x34 ./hardware/kit/common/bsp/thunderboard/mic.o
 .text.MIC_init
                0x00025bb8      0x144 ./hardware/kit/common/bsp/thunderboard/mic.o
                0x00025bb8                MIC_init
 .text.MIC_deInit
                0x00025cfc       0x38 ./hardware/kit/common/bsp/thunderboard/mic.o
                0x00025cfc                MIC_deInit
 .text.MIC_start
                0x00025d34       0x80 ./hardware/kit/common/bsp/thunderboard/mic.o
                0x00025d34                MIC_start
 .text.MIC_getSoundLevel
                0x00025db4       0xc4 ./hardware/kit/common/bsp/thunderboard/mic.o
                0x00025db4                MIC_getSoundLevel
 .text.MIC_isBusy
                0x00025e78        0xc ./hardware/kit/common/bsp/thunderboard/mic.o
                0x00025e78                MIC_isBusy
 .text.SI1133_calcEvalPoly.constprop.2
                0x00025e84      0x114 ./hardware/kit/common/bsp/thunderboard/si1133.o
 .text.SI1133_registerRead
                0x00025f98       0x44 ./hardware/kit/common/bsp/thunderboard/si1133.o
                0x00025f98                SI1133_registerRead
 .text.SI1133_waitUntilSleep
                0x00025fdc       0x34 ./hardware/kit/common/bsp/thunderboard/si1133.o
 .text.SI1133_registerWrite
                0x00026010       0x48 ./hardware/kit/common/bsp/thunderboard/si1133.o
                0x00026010                SI1133_registerWrite
 .text.SI1133_sendCmd
                0x00026058       0x9c ./hardware/kit/common/bsp/thunderboard/si1133.o
 .text.SI1133_registerBlockWrite
                0x000260f4       0x60 ./hardware/kit/common/bsp/thunderboard/si1133.o
                0x000260f4                SI1133_registerBlockWrite
 .text.SI1133_registerBlockRead
                0x00026154       0x44 ./hardware/kit/common/bsp/thunderboard/si1133.o
                0x00026154                SI1133_registerBlockRead
 .text.SI1133_reset
                0x00026198       0x1c ./hardware/kit/common/bsp/thunderboard/si1133.o
                0x00026198                SI1133_reset
 .text.SI1133_measurementForce
                0x000261b4        0x8 ./hardware/kit/common/bsp/thunderboard/si1133.o
                0x000261b4                SI1133_measurementForce
 .text.SI1133_paramSet
                0x000261bc       0x78 ./hardware/kit/common/bsp/thunderboard/si1133.o
                0x000261bc                SI1133_paramSet
 .text.SI1133_init
                0x00026234       0xa8 ./hardware/kit/common/bsp/thunderboard/si1133.o
                0x00026234                SI1133_init
 .text.SI1133_deInit
                0x000262dc       0x24 ./hardware/kit/common/bsp/thunderboard/si1133.o
                0x000262dc                SI1133_deInit
 .text.SI1133_measurementGet
                0x00026300       0x94 ./hardware/kit/common/bsp/thunderboard/si1133.o
                0x00026300                SI1133_measurementGet
 .text.SI1133_getLux
                0x00026394       0x38 ./hardware/kit/common/bsp/thunderboard/si1133.o
                0x00026394                SI1133_getLux
 .text.SI1133_getMeasurement
                0x000263cc       0x6c ./hardware/kit/common/bsp/thunderboard/si1133.o
                0x000263cc                SI1133_getMeasurement
 .text.SI1133_getIrqStatus
                0x00026438        0x8 ./hardware/kit/common/bsp/thunderboard/si1133.o
                0x00026438                SI1133_getIrqStatus
 .text.SI7021_deInit
                0x00026440        0x8 ./hardware/kit/common/bsp/thunderboard/si7021.o
                0x00026440                SI7021_deInit
 .text.SI7021_cmdRead
                0x00026448       0x54 ./hardware/kit/common/bsp/thunderboard/si7021.o
                0x00026448                SI7021_cmdRead
 .text.SI7021_init
                0x0002649c       0x3c ./hardware/kit/common/bsp/thunderboard/si7021.o
                0x0002649c                SI7021_init
 .text.SI7021_cmdWrite
                0x000264d8       0x50 ./hardware/kit/common/bsp/thunderboard/si7021.o
                0x000264d8                SI7021_cmdWrite
 .text.SI7021_measure
                0x00026528       0xb0 ./hardware/kit/common/bsp/thunderboard/si7021.o
                0x00026528                SI7021_measure
 .text.UTIL_init
                0x000265d8       0x44 ./hardware/kit/common/bsp/thunderboard/util.o
                0x000265d8                UTIL_init
 .text.SysTick_Handler
                0x0002661c       0x10 ./hardware/kit/common/bsp/thunderboard/util.o
                0x0002661c                SysTick_Handler
 .text.UTIL_delay
                0x0002662c       0x30 ./hardware/kit/common/bsp/thunderboard/util.o
                0x0002662c                UTIL_delay
 .text.UTIL_shutdown
                0x0002665c       0x3c ./hardware/kit/common/bsp/thunderboard/util.o
                0x0002665c                UTIL_shutdown
 .text.measureSupplyVoltage.constprop.1
                0x00026698      0x14c ./hardware/kit/common/bsp/thunderboard/util_supply.o
 *fill*         0x000267e4        0x4 
 .text.UTIL_supplyProbe
                0x000267e8      0x13c ./hardware/kit/common/bsp/thunderboard/util_supply.o
                0x000267e8                UTIL_supplyProbe
 .text.UTIL_supplyGetCharacteristics
                0x00026924       0x28 ./hardware/kit/common/bsp/thunderboard/util_supply.o
                0x00026924                UTIL_supplyGetCharacteristics
 .text.UTIL_supplyGetType
                0x0002694c        0xc ./hardware/kit/common/bsp/thunderboard/util_supply.o
                0x0002694c                UTIL_supplyGetType
 .text.UTIL_isLowPower
                0x00026958       0x14 ./hardware/kit/common/bsp/thunderboard/util_supply.o
                0x00026958                UTIL_isLowPower
 .text.bmp280_read_uncomp_temperature
                0x0002696c       0x4c ./hardware/kit/common/bsp/thunderboard/bosch/BMP280_driver/bmp280.o
                0x0002696c                bmp280_read_uncomp_temperature
 .text.bmp280_compensate_temperature_int32
                0x000269b8       0x40 ./hardware/kit/common/bsp/thunderboard/bosch/BMP280_driver/bmp280.o
                0x000269b8                bmp280_compensate_temperature_int32
 .text.bmp280_read_uncomp_pressure
                0x000269f8       0x4c ./hardware/kit/common/bsp/thunderboard/bosch/BMP280_driver/bmp280.o
                0x000269f8                bmp280_read_uncomp_pressure
 .text.bmp280_read_uncomp_pressure_temperature
                0x00026a44       0x74 ./hardware/kit/common/bsp/thunderboard/bosch/BMP280_driver/bmp280.o
                0x00026a44                bmp280_read_uncomp_pressure_temperature
 .text.bmp280_get_calib_param
                0x00026ab8       0xe0 ./hardware/kit/common/bsp/thunderboard/bosch/BMP280_driver/bmp280.o
                0x00026ab8                bmp280_get_calib_param
 .text.bmp280_init
                0x00026b98       0x74 ./hardware/kit/common/bsp/thunderboard/bosch/BMP280_driver/bmp280.o
                0x00026b98                bmp280_init
 .text.bmp280_set_power_mode
                0x00026c0c       0x44 ./hardware/kit/common/bsp/thunderboard/bosch/BMP280_driver/bmp280.o
                0x00026c0c                bmp280_set_power_mode
 .text.bmp280_set_work_mode
                0x00026c50       0xb4 ./hardware/kit/common/bsp/thunderboard/bosch/BMP280_driver/bmp280.o
                0x00026c50                bmp280_set_work_mode
 .text.bmp280_compensate_pressure_int64
                0x00026d04      0x1ec ./hardware/kit/common/bsp/thunderboard/bosch/BMP280_driver/bmp280.o
                0x00026d04                bmp280_compensate_pressure_int64
 .text.bmp280_compute_wait_time
                0x00026ef0       0x48 ./hardware/kit/common/bsp/thunderboard/bosch/BMP280_driver/bmp280.o
                0x00026ef0                bmp280_compute_wait_time
 .text.bmp280_get_forced_uncomp_pressure_temperature
                0x00026f38       0x64 ./hardware/kit/common/bsp/thunderboard/bosch/BMP280_driver/bmp280.o
                0x00026f38                bmp280_get_forced_uncomp_pressure_temperature
 .text.gpioInterrupt
                0x00026f9c       0x24 ./hardware/kit/common/bsp/thunderboard/imu/imu.o
 .text.IMU_init
                0x00026fc0       0xcc ./hardware/kit/common/bsp/thunderboard/imu/imu.o
                0x00026fc0                IMU_init
 .text.IMU_deInit
                0x0002708c       0x10 ./hardware/kit/common/bsp/thunderboard/imu/imu.o
                0x0002708c                IMU_deInit
 .text.IMU_getState
                0x0002709c        0xc ./hardware/kit/common/bsp/thunderboard/imu/imu.o
                0x0002709c                IMU_getState
 .text.IMU_config
                0x000270a8       0xec ./hardware/kit/common/bsp/thunderboard/imu/imu.o
                0x000270a8                IMU_config
 .text.IMU_accelerationGet
                0x00027194       0x78 ./hardware/kit/common/bsp/thunderboard/imu/imu.o
                0x00027194                IMU_accelerationGet
 *fill*         0x0002720c        0x4 
 .text.IMU_orientationGet
                0x00027210       0x5c ./hardware/kit/common/bsp/thunderboard/imu/imu.o
                0x00027210                IMU_orientationGet
 .text.IMU_gyroCalibrate
                0x0002726c       0x30 ./hardware/kit/common/bsp/thunderboard/imu/imu.o
                0x0002726c                IMU_gyroCalibrate
 .text.IMU_update
                0x0002729c        0xc ./hardware/kit/common/bsp/thunderboard/imu/imu.o
                0x0002729c                IMU_update
 .text.IMU_getAccelerometerData
                0x000272a8       0x1c ./hardware/kit/common/bsp/thunderboard/imu/imu.o
                0x000272a8                IMU_getAccelerometerData
 .text.IMU_getGyroData
                0x000272c4       0x1c ./hardware/kit/common/bsp/thunderboard/imu/imu.o
                0x000272c4                IMU_getGyroData
 .text.IMU_isDataReady
                0x000272e0       0x38 ./hardware/kit/common/bsp/thunderboard/imu/imu.o
                0x000272e0                IMU_isDataReady
 .text.IMU_isDataReadyFlag
                0x00027318       0x1c ./hardware/kit/common/bsp/thunderboard/imu/imu.o
                0x00027318                IMU_isDataReadyFlag
 .text.IMU_clearDataReadyFlag
                0x00027334       0x1c ./hardware/kit/common/bsp/thunderboard/imu/imu.o
                0x00027334                IMU_clearDataReadyFlag
 .text.IMU_dcmReset
                0x00027350       0x1c ./hardware/kit/common/bsp/thunderboard/imu/imu_dcm.o
                0x00027350                IMU_dcmReset
 .text.IMU_dcmRotate
                0x0002736c       0x74 ./hardware/kit/common/bsp/thunderboard/imu/imu_dcm.o
                0x0002736c                IMU_dcmRotate
 .text.IMU_dcmNormalize
                0x000273e0       0xac ./hardware/kit/common/bsp/thunderboard/imu/imu_dcm.o
                0x000273e0                IMU_dcmNormalize
 .text.IMU_dcmGetAngles
                0x0002748c       0x38 ./hardware/kit/common/bsp/thunderboard/imu/imu_dcm.o
                0x0002748c                IMU_dcmGetAngles
 .text.IMU_fuseNew
                0x000274c4       0x40 ./hardware/kit/common/bsp/thunderboard/imu/imu_fuse.o
                0x000274c4                IMU_fuseNew
 *fill*         0x00027504        0x4 
 .text.IMU_fuseGyroSetSampleRate
                0x00027508       0x40 ./hardware/kit/common/bsp/thunderboard/imu/imu_fuse.o
                0x00027508                IMU_fuseGyroSetSampleRate
 .text.IMU_fuseAccelerometerSetSampleRate
                0x00027548        0x8 ./hardware/kit/common/bsp/thunderboard/imu/imu_fuse.o
                0x00027548                IMU_fuseAccelerometerSetSampleRate
 .text.IMU_fuseGyroUpdate
                0x00027550       0x38 ./hardware/kit/common/bsp/thunderboard/imu/imu_fuse.o
                0x00027550                IMU_fuseGyroUpdate
 .text.IMU_fuseGyroCorrection
                0x00027588      0x168 ./hardware/kit/common/bsp/thunderboard/imu/imu_fuse.o
                0x00027588                IMU_fuseGyroCorrection
 .text.IMU_fuseReset
                0x000276f0       0x38 ./hardware/kit/common/bsp/thunderboard/imu/imu_fuse.o
                0x000276f0                IMU_fuseReset
 .text.IMU_fuseUpdate
                0x00027728       0x90 ./hardware/kit/common/bsp/thunderboard/imu/imu_fuse.o
                0x00027728                IMU_fuseUpdate
 .text.IMU_matrixMultiply
                0x000277b8       0x68 ./hardware/kit/common/bsp/thunderboard/imu/imu_math.o
                0x000277b8                IMU_matrixMultiply
 .text.IMU_vectorNormalizeAngle
                0x00027820       0xb0 ./hardware/kit/common/bsp/thunderboard/imu/imu_math.o
                0x00027820                IMU_vectorNormalizeAngle
 .text.IMU_vectorZero
                0x000278d0        0xc ./hardware/kit/common/bsp/thunderboard/imu/imu_math.o
                0x000278d0                IMU_vectorZero
 .text.IMU_vectorScalarMultiplication
                0x000278dc       0x18 ./hardware/kit/common/bsp/thunderboard/imu/imu_math.o
                0x000278dc                IMU_vectorScalarMultiplication
 .text.IMU_vectorScale
                0x000278f4       0x28 ./hardware/kit/common/bsp/thunderboard/imu/imu_math.o
                0x000278f4                IMU_vectorScale
 .text.IMU_vectorAdd
                0x0002791c       0x1c ./hardware/kit/common/bsp/thunderboard/imu/imu_math.o
                0x0002791c                IMU_vectorAdd
 .text.IMU_vectorSubtract
                0x00027938       0x1c ./hardware/kit/common/bsp/thunderboard/imu/imu_math.o
                0x00027938                IMU_vectorSubtract
 .text.IMU_vectorDotProduct
                0x00027954       0x24 ./hardware/kit/common/bsp/thunderboard/imu/imu_math.o
                0x00027954                IMU_vectorDotProduct
 .text.IMU_vectorCrossProduct
                0x00027978       0x64 ./hardware/kit/common/bsp/thunderboard/imu/imu_math.o
                0x00027978                IMU_vectorCrossProduct
 .text.I2CSPM_Init
                0x000279dc       0xa8 ./hardware/kit/common/drivers/i2cspm.o
                0x000279dc                I2CSPM_Init
 .text.I2CSPM_Transfer
                0x00027a84       0x24 ./hardware/kit/common/drivers/i2cspm.o
                0x00027a84                I2CSPM_Transfer
 .text._close   0x00027aa8        0x4 ./hardware/kit/common/drivers/retargetio.o
                0x00027aa8                _close
 .text._exit    0x00027aac        0x4 ./hardware/kit/common/drivers/retargetio.o
                0x00027aac                _exit
 .text._fstat   0x00027ab0        0xc ./hardware/kit/common/drivers/retargetio.o
                0x00027ab0                _fstat
 .text._isatty  0x00027abc        0x4 ./hardware/kit/common/drivers/retargetio.o
                0x00027abc                _isatty
 .text._lseek   0x00027ac0        0x4 ./hardware/kit/common/drivers/retargetio.o
                0x00027ac0                _lseek
 .text._read    0x00027ac4       0x30 ./hardware/kit/common/drivers/retargetio.o
                0x00027ac4                _read
 .text._sbrk    0x00027af4       0x1c ./hardware/kit/common/drivers/retargetio.o
                0x00027af4                _sbrk
 .text._write   0x00027b10       0x1c ./hardware/kit/common/drivers/retargetio.o
                0x00027b10                _write
 .text.USART0_RX_IRQHandler
                0x00027b2c       0x58 ./hardware/kit/common/drivers/retargetserial.o
                0x00027b2c                USART0_RX_IRQHandler
 .text.RETARGET_SerialInit
                0x00027b84       0xc0 ./hardware/kit/common/drivers/retargetserial.o
                0x00027b84                RETARGET_SerialInit
 .text.RETARGET_ReadChar
                0x00027c44       0x58 ./hardware/kit/common/drivers/retargetserial.o
                0x00027c44                RETARGET_ReadChar
 .text.RETARGET_WriteChar
                0x00027c9c       0x58 ./hardware/kit/common/drivers/retargetserial.o
                0x00027c9c                RETARGET_WriteChar
 .text.Default_Handler
                0x00027cf4        0x4 ./platform/Device/SiliconLabs/EFR32MG1P/Source/GCC/startup_efr32mg1p.o
                0x00027cf4                DebugMon_Handler
                0x00027cf4                USART0_TX_IRQHandler
                0x00027cf4                I2C0_IRQHandler
                0x00027cf4                HardFault_Handler
                0x00027cf4                USART1_RX_IRQHandler
                0x00027cf4                PendSV_Handler
                0x00027cf4                NMI_Handler
                0x00027cf4                SYNTH_IRQHandler
                0x00027cf4                WDOG0_IRQHandler
                0x00027cf4                USART1_TX_IRQHandler
                0x00027cf4                MSC_IRQHandler
                0x00027cf4                ADC0_IRQHandler
                0x00027cf4                UsageFault_Handler
                0x00027cf4                LEUART0_IRQHandler
                0x00027cf4                FPUEH_IRQHandler
                0x00027cf4                TIMER0_IRQHandler
                0x00027cf4                LETIMER0_IRQHandler
                0x00027cf4                TIMER1_IRQHandler
                0x00027cf4                RFSENSE_IRQHandler
                0x00027cf4                BUFC_IRQHandler
                0x00027cf4                MODEM_IRQHandler
                0x00027cf4                Default_Handler
                0x00027cf4                RAC_SEQ_IRQHandler
                0x00027cf4                FRC_PRI_IRQHandler
                0x00027cf4                FRC_IRQHandler
                0x00027cf4                CRYOTIMER_IRQHandler
                0x00027cf4                PCNT0_IRQHandler
                0x00027cf4                AGC_IRQHandler
                0x00027cf4                ACMP0_IRQHandler
                0x00027cf4                MemManage_Handler
                0x00027cf4                SVC_Handler
                0x00027cf4                RTCC_IRQHandler
                0x00027cf4                CRYPTO_IRQHandler
                0x00027cf4                CMU_IRQHandler
                0x00027cf4                RAC_RSM_IRQHandler
                0x00027cf4                PROTIMER_IRQHandler
                0x00027cf4                BusFault_Handler
                0x00027cf4                IDAC0_IRQHandler
 .text.Reset_Handler
                0x00027cf8       0x34 ./platform/Device/SiliconLabs/EFR32MG1P/Source/GCC/startup_efr32mg1p.o
                0x00027cf8                Reset_Handler
 .text.StartTransfer
                0x00027d2c      0x1dc ./platform/emdrv/dmadrv/src/dmadrv.o
 .text.DMADRV_AllocateChannel
                0x00027f08       0x60 ./platform/emdrv/dmadrv/src/dmadrv.o
                0x00027f08                DMADRV_AllocateChannel
 .text.DMADRV_FreeChannel
                0x00027f68       0x54 ./platform/emdrv/dmadrv/src/dmadrv.o
                0x00027f68                DMADRV_FreeChannel
 .text.DMADRV_Init
                0x00027fbc       0x60 ./platform/emdrv/dmadrv/src/dmadrv.o
                0x00027fbc                DMADRV_Init
 .text.DMADRV_PeripheralMemory
                0x0002801c       0x34 ./platform/emdrv/dmadrv/src/dmadrv.o
                0x0002801c                DMADRV_PeripheralMemory
 .text.LDMA_IRQHandler
                0x00028050       0x7c ./platform/emdrv/dmadrv/src/dmadrv.o
                0x00028050                LDMA_IRQHandler
 .text.GPIOINT_IRQDispatcher
                0x000280cc       0x2c ./platform/emdrv/gpiointerrupt/src/gpiointerrupt.o
 .text.GPIOINT_Init
                0x000280f8       0x1c ./platform/emdrv/gpiointerrupt/src/gpiointerrupt.o
                0x000280f8                GPIOINT_Init
 .text.GPIOINT_CallbackRegister
                0x00028114       0x1c ./platform/emdrv/gpiointerrupt/src/gpiointerrupt.o
                0x00028114                GPIOINT_CallbackRegister
 .text.GPIO_EVEN_IRQHandler
                0x00028130       0x20 ./platform/emdrv/gpiointerrupt/src/gpiointerrupt.o
                0x00028130                GPIO_EVEN_IRQHandler
 .text.GPIO_ODD_IRQHandler
                0x00028150       0x20 ./platform/emdrv/gpiointerrupt/src/gpiointerrupt.o
                0x00028150                GPIO_ODD_IRQHandler
 .text.ADC_LoadDevinfoCal
                0x00028170       0xb8 ./platform/emlib/src/em_adc.o
 .text.ADC_ScanInputClear
                0x00028228       0x14 ./platform/emlib/src/em_adc.o
                0x00028228                ADC_ScanInputClear
 .text.ADC_ScanSingleEndedInputAdd
                0x0002823c       0x3c ./platform/emlib/src/em_adc.o
                0x0002823c                ADC_ScanSingleEndedInputAdd
 .text.ADC_InitScan
                0x00028278       0x98 ./platform/emlib/src/em_adc.o
                0x00028278                ADC_InitScan
 .text.ADC_InitSingle
                0x00028310       0xb8 ./platform/emlib/src/em_adc.o
                0x00028310                ADC_InitSingle
 .text.ADC_PrescaleCalc
                0x000283c8       0x4c ./platform/emlib/src/em_adc.o
                0x000283c8                ADC_PrescaleCalc
 .text.ADC_Init
                0x00028414       0x68 ./platform/emlib/src/em_adc.o
                0x00028414                ADC_Init
 .text.ADC_TimebaseCalc
                0x0002847c       0x30 ./platform/emlib/src/em_adc.o
                0x0002847c                ADC_TimebaseCalc
 .text.flashWaitStateControl.isra.0
                0x000284ac       0x48 ./platform/emlib/src/em_cmu.o
 .text.CMU_OscillatorTuningSet.part.3
                0x000284f4       0x3c ./platform/emlib/src/em_cmu.o
 .text.CMU_ClockEnable
                0x00028530       0x8c ./platform/emlib/src/em_cmu.o
                0x00028530                CMU_ClockEnable
 .text.CMU_ClockSelectGet
                0x000285bc       0xcc ./platform/emlib/src/em_cmu.o
                0x000285bc                CMU_ClockSelectGet
 .text.lfClkGet
                0x00028688       0x94 ./platform/emlib/src/em_cmu.o
 .text.CMU_ClockFreqGet
                0x0002871c      0x160 ./platform/emlib/src/em_cmu.o
                0x0002871c                CMU_ClockFreqGet
 .text.CMU_OscillatorTuningWait
                0x0002887c       0x5c ./platform/emlib/src/em_cmu.o
                0x0002887c                CMU_OscillatorTuningWait
 .text.CMU_OscillatorEnable
                0x000288d8      0x110 ./platform/emlib/src/em_cmu.o
                0x000288d8                CMU_OscillatorEnable
 .text.CMU_ClockSelectSet
                0x000289e8      0x200 ./platform/emlib/src/em_cmu.o
                0x000289e8                CMU_ClockSelectSet
 .text.CMU_HFXOInit
                0x00028be8       0x88 ./platform/emlib/src/em_cmu.o
                0x00028be8                CMU_HFXOInit
 .text.CMU_LFXOInit
                0x00028c70       0x40 ./platform/emlib/src/em_cmu.o
                0x00028c70                CMU_LFXOInit
 .text.GPIO_ExtIntConfig
                0x00028cb0       0xb0 ./platform/emlib/src/em_gpio.o
                0x00028cb0                GPIO_ExtIntConfig
 .text.GPIO_PinModeSet
                0x00028d60       0x84 ./platform/emlib/src/em_gpio.o
                0x00028d60                GPIO_PinModeSet
 .text.GPIO_EM4EnablePinWakeup
                0x00028de4       0x48 ./platform/emlib/src/em_gpio.o
                0x00028de4                GPIO_EM4EnablePinWakeup
 .text.I2C_BusFreqSet.part.0
                0x00028e2c       0x60 ./platform/emlib/src/em_i2c.o
 .text.I2C_Init
                0x00028e8c       0x3c ./platform/emlib/src/em_i2c.o
                0x00028e8c                I2C_Init
 .text.I2C_Transfer
                0x00028ec8      0x284 ./platform/emlib/src/em_i2c.o
                0x00028ec8                I2C_Transfer
 .text.I2C_TransferInit
                0x0002914c       0x70 ./platform/emlib/src/em_i2c.o
                0x0002914c                I2C_TransferInit
 .text.LDMA_Init
                0x000291bc       0x58 ./platform/emlib/src/em_ldma.o
                0x000291bc                LDMA_Init
 .text.LDMA_StartTransfer
                0x00029214       0xa8 ./platform/emlib/src/em_ldma.o
                0x00029214                LDMA_StartTransfer
 .text.PRS_SourceAsyncSignalSet
                0x000292bc       0x1c ./platform/emlib/src/em_prs.o
                0x000292bc                PRS_SourceAsyncSignalSet
 .text.SYSTEM_ChipRevisionGet
                0x000292d8       0x34 ./platform/emlib/src/em_system.o
                0x000292d8                SYSTEM_ChipRevisionGet
 .text.TIMER_Init
                0x0002930c       0xb0 ./platform/emlib/src/em_timer.o
                0x0002930c                TIMER_Init
 .text.TIMER_InitCC
                0x000293bc       0x84 ./platform/emlib/src/em_timer.o
                0x000293bc                TIMER_InitCC
 .text.USART_BaudrateAsyncSet
                0x00029440       0x68 ./platform/emlib/src/em_usart.o
                0x00029440                USART_BaudrateAsyncSet
 .text.USART_BaudrateSyncSet
                0x000294a8       0x24 ./platform/emlib/src/em_usart.o
                0x000294a8                USART_BaudrateSyncSet
 .text.USART_Enable
                0x000294cc       0x10 ./platform/emlib/src/em_usart.o
                0x000294cc                USART_Enable
 .text.USART_InitAsync
                0x000294dc       0xb4 ./platform/emlib/src/em_usart.o
                0x000294dc                USART_InitAsync
 .text.USART_InitSync
                0x00029590       0xcc ./platform/emlib/src/em_usart.o
                0x00029590                USART_InitSync
 .text.USART_Reset
                0x0002965c       0x4c ./platform/emlib/src/em_usart.o
                0x0002965c                USART_Reset
 .text.USART_Rx
                0x000296a8        0xc ./platform/emlib/src/em_usart.o
                0x000296a8                USART_Rx
 .text.USART_SpiTransfer
                0x000296b4       0x14 ./platform/emlib/src/em_usart.o
                0x000296b4                USART_SpiTransfer
 .text.USART_Tx
                0x000296c8        0xc ./platform/emlib/src/em_usart.o
                0x000296c8                USART_Tx
 .text          0x000296d4       0x18 C:\Users\admin\SimplicityStudio\v4_workspace\soc-thunderboard-sense\protocol\bluetooth_2.6\lib\EFR32MG1P\GCC\bgapi.a(gecko_bgapi_hardware.c.obj)
                0x000296d4                gecko_bgapi_class_hardware_init
 .text          0x000296ec       0x18 C:\Users\admin\SimplicityStudio\v4_workspace\soc-thunderboard-sense\protocol\bluetooth_2.6\lib\EFR32MG1P\GCC\bgapi.a(gecko_bgapi_test.c.obj)
                0x000296ec                gecko_bgapi_class_test_init
 .text          0x00029704       0x18 C:\Users\admin\SimplicityStudio\v4_workspace\soc-thunderboard-sense\protocol\bluetooth_2.6\lib\EFR32MG1P\GCC\bgapi.a(gecko_bgapi_dfu.c.obj)
                0x00029704                gecko_bgapi_class_dfu_init
 .text          0x0002971c       0x18 C:\Users\admin\SimplicityStudio\v4_workspace\soc-thunderboard-sense\protocol\bluetooth_2.6\lib\EFR32MG1P\GCC\bgapi.a(gecko_bgapi_gap.c.obj)
                0x0002971c                gecko_bgapi_class_le_gap_init
 .text          0x00029734       0x18 C:\Users\admin\SimplicityStudio\v4_workspace\soc-thunderboard-sense\protocol\bluetooth_2.6\lib\EFR32MG1P\GCC\bgapi.a(gecko_bgapi_gatt.c.obj)
                0x00029734                gecko_bgapi_class_gatt_init
 .text          0x0002974c       0x18 C:\Users\admin\SimplicityStudio\v4_workspace\soc-thunderboard-sense\protocol\bluetooth_2.6\lib\EFR32MG1P\GCC\bgapi.a(gecko_bgapi_gatt_server.c.obj)
                0x0002974c                gecko_bgapi_class_gatt_server_init
 .text          0x00029764       0x18 C:\Users\admin\SimplicityStudio\v4_workspace\soc-thunderboard-sense\protocol\bluetooth_2.6\lib\EFR32MG1P\GCC\bgapi.a(gecko_bgapi_flash.c.obj)
                0x00029764                gecko_bgapi_class_flash_init
 .text          0x0002977c       0x18 C:\Users\admin\SimplicityStudio\v4_workspace\soc-thunderboard-sense\protocol\bluetooth_2.6\lib\EFR32MG1P\GCC\bgapi.a(gecko_bgapi_sm.c.obj)
                0x0002977c                gecko_bgapi_class_sm_init
 .text          0x00029794       0x18 C:\Users\admin\SimplicityStudio\v4_workspace\soc-thunderboard-sense\protocol\bluetooth_2.6\lib\EFR32MG1P\GCC\bgapi.a(gecko_bgapi_system.c.obj)
                0x00029794                gecko_bgapi_class_system_init
 .text          0x000297ac       0x18 C:\Users\admin\SimplicityStudio\v4_workspace\soc-thunderboard-sense\protocol\bluetooth_2.6\lib\EFR32MG1P\GCC\bgapi.a(gecko_bgapi_endpoint.c.obj)
                0x000297ac                gecko_bgapi_class_endpoint_init
 .text          0x000297c4       0x18 C:\Users\admin\SimplicityStudio\v4_workspace\soc-thunderboard-sense\protocol\bluetooth_2.6\lib\EFR32MG1P\GCC\bgapi.a(gecko_bgapi_le_connection.c.obj)
                0x000297c4                gecko_bgapi_class_le_connection_init
 .text          0x000297dc      0x1c8 C:\Users\admin\SimplicityStudio\v4_workspace\soc-thunderboard-sense\protocol\bluetooth_2.6\lib\EFR32MG1P\GCC\bgapi.a(bgapi_hardware.c.obj)
                0x0002984c                bgapi_hardware_soft_timer_listener
                0x000298a8                lib_hardware_handler_init
                0x000298bc                gecko_cmd_hardware_set_soft_timer
                0x000298fc                gecko_cmd_hardware_set_lazy_soft_timer
                0x0002993c                gecko_cmd_hardware_get_time
                0x00029970                gecko_cmd_hardware_enable_dcdc
 .text          0x000299a4      0x408 C:\Users\admin\SimplicityStudio\v4_workspace\soc-thunderboard-sense\protocol\bluetooth_2.6\lib\EFR32MG1P\GCC\bgapi.a(bgapi_test_lib.c.obj)
                0x000299a4                bgapi_test_lib_msg_handler
                0x00029a00                lib_test_handler_init
                0x00029a20                disable_interrupts
                0x00029a44                gecko_cmd_test_dtm_tx
                0x00029b68                gecko_cmd_test_dtm_rx
                0x00029bbc                gecko_cmd_test_dtm_end
                0x00029c54                gecko_cmd_test_debug_command
                0x00029d30                gecko_cmd_test_debug_counter
 .text          0x00029dac       0x8c C:\Users\admin\SimplicityStudio\v4_workspace\soc-thunderboard-sense\protocol\bluetooth_2.6\lib\EFR32MG1P\GCC\bgapi.a(bgapi_dfu.c.obj)
                0x00029dac                lib_dfu_handler_init
                0x00029dae                gecko_cmd_dfu_reset
                0x00029db4                gecko_cmd_dfu_flash_set_address
                0x00029de0                gecko_cmd_dfu_flash_upload
                0x00029e0c                gecko_cmd_dfu_flash_upload_finish
 .text          0x00029e38      0x364 C:\Users\admin\SimplicityStudio\v4_workspace\soc-thunderboard-sense\protocol\bluetooth_2.6\lib\EFR32MG1P\GCC\bgapi.a(bgapi_gap.c.obj)
                0x00029e6c                lib_le_gap_handler_init
                0x00029e6e                gecko_cmd_le_gap_set_mode
                0x00029eb4                gecko_cmd_le_gap_bt5_set_mode
                0x00029ef8                gecko_cmd_le_gap_set_adv_data
                0x00029f30                gecko_cmd_le_gap_bt5_set_adv_data
                0x00029f64                gecko_cmd_le_gap_set_adv_timeout
                0x00029fb8                gecko_cmd_le_gap_open
                0x0002a00c                gecko_cmd_le_gap_discover
                0x0002a038                gecko_cmd_le_gap_end_procedure
                0x0002a064                gecko_cmd_le_gap_set_adv_parameters
                0x0002a098                gecko_cmd_le_gap_bt5_set_adv_parameters
                0x0002a0d4                gecko_cmd_le_gap_set_scan_parameters
                0x0002a108                gecko_cmd_le_gap_set_conn_parameters
                0x0002a140                gecko_cmd_le_gap_set_phy
                0x0002a16c                gecko_cmd_le_gap_set_privacy_mode
 .text          0x0002a19c      0x68c C:\Users\admin\SimplicityStudio\v4_workspace\soc-thunderboard-sense\protocol\bluetooth_2.6\lib\EFR32MG1P\GCC\bgapi.a(bgapi_gatt_lib.c.obj)
                0x0002a19c                lib_gatt_handler_init
                0x0002a1a0                lib_gatt_server_handler_init
                0x0002a1a2                gecko_cmd_gatt_set_max_mtu
                0x0002a1dc                gecko_cmd_gatt_discover_primary_services
                0x0002a208                gecko_cmd_gatt_discover_primary_services_by_uuid
                0x0002a240                gecko_cmd_gatt_find_included_services
                0x0002a274                gecko_cmd_gatt_discover_characteristics
                0x0002a2a8                gecko_cmd_gatt_discover_characteristics_by_uuid
                0x0002a2e4                gecko_cmd_gatt_read_characteristic_value
                0x0002a31c                gecko_cmd_gatt_read_characteristic_value_from_offset
                0x0002a358                gecko_cmd_gatt_read_characteristic_value_by_uuid
                0x0002a394                gecko_cmd_gatt_read_multiple_characteristic_values
                0x0002a3c8                gecko_cmd_gatt_write_characteristic_value
                0x0002a400                gecko_cmd_gatt_write_characteristic_value_without_response
                0x0002a440                gecko_cmd_gatt_prepare_characteristic_value_write
                0x0002a48c                gecko_cmd_gatt_execute_characteristic_value_write
                0x0002a4bc                gecko_cmd_gatt_set_characteristic_notification
                0x0002a4f0                gecko_cmd_gatt_discover_descriptors
                0x0002a524                gecko_cmd_gatt_read_descriptor_value
                0x0002a558                gecko_cmd_gatt_write_descriptor_value
                0x0002a590                gecko_cmd_gatt_server_read_attribute_value
                0x0002a5dc                gecko_cmd_gatt_server_read_attribute_type
                0x0002a620                gecko_cmd_gatt_server_find_attribute
                0x0002a65c                gecko_cmd_gatt_server_write_attribute_value
                0x0002a690                gecko_cmd_gatt_server_send_user_read_response
                0x0002a6d4                gecko_cmd_gatt_server_send_user_write_response
                0x0002a708                gecko_cmd_gatt_server_send_characteristic_notification
                0x0002a74c                gecko_cmd_gatt_send_characteristic_confirmation
                0x0002a778                gecko_cmd_gatt_server_set_database
                0x0002a7a8                gecko_cmd_gatt_server_set_capabilities
                0x0002a7dc                gecko_cmd_gatt_prepare_characteristic_value_reliable_write
 .text          0x0002a828      0x1d0 C:\Users\admin\SimplicityStudio\v4_workspace\soc-thunderboard-sense\protocol\bluetooth_2.6\lib\EFR32MG1P\GCC\bgapi.a(bgapi_ps.c.obj)
                0x0002a828                bgapi_ps_dump_listener
                0x0002a868                lib_flash_handler_init
                0x0002a87c                gecko_cmd_flash_ps_dump
                0x0002a90c                gecko_cmd_flash_ps_erase_all
                0x0002a93c                gecko_cmd_flash_ps_save
                0x0002a97c                gecko_cmd_flash_ps_load
                0x0002a9c4                gecko_cmd_flash_ps_erase
 .text          0x0002a9f8      0x3c4 C:\Users\admin\SimplicityStudio\v4_workspace\soc-thunderboard-sense\protocol\bluetooth_2.6\lib\EFR32MG1P\GCC\bgapi.a(bgapi_sm.c.obj)
                0x0002aabc                lib_sm_handler_init
                0x0002aad0                gecko_cmd_sm_list_all_bondings
                0x0002ab08                gecko_cmd_sm_increase_security
                0x0002ab34                gecko_cmd_sm_set_bondable_mode
                0x0002ab60                gecko_cmd_sm_delete_bonding
                0x0002ab90                gecko_cmd_sm_delete_bondings
                0x0002abc0                gecko_cmd_sm_configure
                0x0002abf4                gecko_cmd_sm_enter_passkey
                0x0002ac28                gecko_cmd_sm_set_passkey
                0x0002ac54                gecko_cmd_sm_passkey_confirm
                0x0002ac84                gecko_cmd_sm_set_oob_data
                0x0002acb4                gecko_cmd_sm_set_sc_remote_oob_data
                0x0002ace4                gecko_cmd_sm_use_sc_oob
                0x0002ad28                gecko_cmd_sm_store_bonding_configuration
                0x0002ad5c                gecko_cmd_sm_bonding_confirm
                0x0002ad8c                gecko_cmd_sm_set_debug_mode
 .text          0x0002adbc      0x208 C:\Users\admin\SimplicityStudio\v4_workspace\soc-thunderboard-sense\protocol\bluetooth_2.6\lib\EFR32MG1P\GCC\bgapi.a(bgapi_system.c.obj)
                0x0002adbc                bgapi_system_listener
                0x0002adec                lib_system_handler_init
                0x0002ae00                gecko_cmd_system_get_bt_address
                0x0002ae34                gecko_cmd_system_set_bt_address
                0x0002ae68                gecko_cmd_system_set_device_name
                0x0002aea4                gecko_cmd_system_get_random_data
                0x0002aeec                gecko_cmd_system_halt
                0x0002af20                gecko_cmd_system_set_tx_power
                0x0002af50                gecko_cmd_system_hello
                0x0002af78                gecko_cmd_system_reset
                0x0002af7e                gecko_send_system_awake
                0x0002af90                gecko_cmd_system_linklayer_configure
 .text          0x0002afc4       0x40 C:\Users\admin\SimplicityStudio\v4_workspace\soc-thunderboard-sense\protocol\bluetooth_2.6\lib\EFR32MG1P\GCC\bgapi.a(bgapi_endpoint.c.obj)
                0x0002afc4                lib_endpoint_handler_init
                0x0002afc6                gecko_cmd_endpoint_close
 .text          0x0002b004      0x13c C:\Users\admin\SimplicityStudio\v4_workspace\soc-thunderboard-sense\protocol\bluetooth_2.6\lib\EFR32MG1P\GCC\bgapi.a(bgapi_le_connection.c.obj)
                0x0002b004                lib_le_connection_handler_init
                0x0002b006                gecko_cmd_le_connection_set_parameters
                0x0002b050                gecko_cmd_le_connection_get_rssi
                0x0002b07c                gecko_cmd_le_connection_disable_slave_latency
                0x0002b0c0                gecko_cmd_le_connection_set_phy
                0x0002b0fc                bgapi_close_le_connection
                0x0002b112                gecko_cmd_le_connection_close
 .text          0x0002b140      0xdf4 C:\Users\admin\SimplicityStudio\v4_workspace\soc-thunderboard-sense\protocol\bluetooth_2.6\lib\EFR32MG1P\GCC\bgapi.a(gatt_client.c.obj)
                0x0002b3a0                gatt_discover_primary_services
                0x0002b3dc                gatt_discover_primary_services_by_uuid
                0x0002b432                gatt_find_included_services
                0x0002b484                gatt_find_included_services_handler
                0x0002b53c                gatt_discover_characteristics
                0x0002b560                gatt_discover_characteristics_by_uuid
                0x0002b59e                gatt_discover_descriptors
                0x0002b5da                gatt_read_characteristic_value
                0x0002b618                gatt_read_characteristic_value_by_uuid
                0x0002b650                gatt_read_multiple_characteristic_values
                0x0002b678                gatt_write_characteristic_value
                0x0002b6a4                gatt_write_characteristic_value_without_response
                0x0002b6ca                gatt_prepare_characteristic_value_write
                0x0002b73e                gatt_execute_characteristic_value_write
                0x0002b762                gatt_set_characteristic_notification
                0x0002b7a2                gatt_read_descriptor_value
                0x0002b7cc                gatt_write_descriptor_value
                0x0002b7f8                gatt_handle_exchange_mtu_rsp
                0x0002b814                gatt_handle_find_information_response
                0x0002b966                gatt_handle_find_by_type_value_response
                0x0002ba0e                gatt_handle_read_response
                0x0002bb70                gatt_handle_read_blob_response
                0x0002bbac                gatt_handle_read_multiple_response
                0x0002bbe8                gatt_handle_read_by_type_response
                0x0002bd30                gatt_handle_read_by_group_type_response
                0x0002bdd6                gatt_handle_write_response
                0x0002bdea                gatt_handle_prepare_write_response
                0x0002beaa                gatt_handle_execute_write_response
                0x0002bee6                gatt_client_handle_value_notification
                0x0002bef8                gatt_client_handle_value_indication
                0x0002bf0c                gatt_send_characteristic_confirmation
                0x0002bf2a                gatt_client_init
 .text          0x0002bf34      0x250 C:\Users\admin\SimplicityStudio\v4_workspace\soc-thunderboard-sense\protocol\bluetooth_2.6\lib\EFR32MG1P\GCC\bgapi.a(ubt_gatt_client.c.obj)
                0x0002bf34                ubt_gatt_discover_primary_services
                0x0002bf4a                ubt_gatt_discover_primary_services_by_uuid
                0x0002bf76                ubt_gatt_find_included_services
                0x0002bf90                ubt_gatt_discover_characteristics
                0x0002bfaa                ubt_gatt_discover_characteristics_by_uuid
                0x0002bfda                ubt_gatt_discover_descriptors
                0x0002bff4                ubt_gatt_read_characteristic_value
                0x0002c016                ubt_gatt_read_characteristic_value_by_uuid
                0x0002c046                ubt_gatt_read_multiple_characteristic_values
                0x0002c064                ubt_gatt_write_characteristic_value
                0x0002c086                ubt_gatt_write_characteristic_value_without_response
                0x0002c0c0                ubt_gatt_prepare_characteristic_value_write
                0x0002c0fa                ubt_gatt_execute_characteristic_value_write
                0x0002c114                ubt_gatt_send_characteristic_confirmation
                0x0002c12a                ubt_gatt_read_descriptor_value
                0x0002c144                ubt_gatt_write_descriptor_value
                0x0002c166                ubt_gatt_set_characteristic_notification
 .text          0x0002c184      0x4fe C:\Users\admin\SimplicityStudio\v4_workspace\soc-thunderboard-sense\protocol\bluetooth_2.6\lib\EFR32MG1P\GCC\bgapi.a(att_client.c.obj)
                0x0002c184                att_send_find_information_request
                0x0002c1aa                att_send_find_by_type_value_request
                0x0002c1dc                att_send_read_by_type_request
                0x0002c208                att_send_read_request
                0x0002c228                att_send_read_blob_request
                0x0002c24e                att_send_read_multiple_request
                0x0002c27c                att_send_read_by_group_type_request
                0x0002c2a8                att_send_write_request
                0x0002c2d8                att_send_write_command
                0x0002c308                att_send_signed_write_command
                0x0002c342                att_send_prepare_write_request
                0x0002c3ba                att_send_execute_write_request
                0x0002c3d8                att_send_handle_value_confirmation
                0x0002c3f0                validate_gatt_client_pdu_len
                0x0002c49c                att_gatt_client_handler
 *fill*         0x0002c682        0x2 
 .text.asinf    0x0002c684       0xbc c:/siliconlabs/simplicitystudio/v4/developer/toolchains/gnu_arm/4.9_2015q3/bin/../lib/gcc/arm-none-eabi/4.9.3/../../../../arm-none-eabi/lib/armv7e-m/fpu\libm.a(lib_a-wf_asin.o)
                0x0002c684                asinf
 .text.atan2f   0x0002c740        0x4 c:/siliconlabs/simplicitystudio/v4/developer/toolchains/gnu_arm/4.9_2015q3/bin/../lib/gcc/arm-none-eabi/4.9.3/../../../../arm-none-eabi/lib/armv7e-m/fpu\libm.a(lib_a-wf_atan2.o)
                0x0002c740                atan2f
 .text.log10f   0x0002c744      0x100 c:/siliconlabs/simplicitystudio/v4/developer/toolchains/gnu_arm/4.9_2015q3/bin/../lib/gcc/arm-none-eabi/4.9.3/../../../../arm-none-eabi/lib/armv7e-m/fpu\libm.a(lib_a-wf_log10.o)
                0x0002c744                log10f
 .text.__ieee754_asinf
                0x0002c844      0x1f8 c:/siliconlabs/simplicitystudio/v4/developer/toolchains/gnu_arm/4.9_2015q3/bin/../lib/gcc/arm-none-eabi/4.9.3/../../../../arm-none-eabi/lib/armv7e-m/fpu\libm.a(lib_a-ef_asin.o)
                0x0002c844                __ieee754_asinf
 .text.__ieee754_atan2f
                0x0002ca3c      0x16c c:/siliconlabs/simplicitystudio/v4/developer/toolchains/gnu_arm/4.9_2015q3/bin/../lib/gcc/arm-none-eabi/4.9.3/../../../../arm-none-eabi/lib/armv7e-m/fpu\libm.a(lib_a-ef_atan2.o)
                0x0002ca3c                __ieee754_atan2f
 .text.__ieee754_log10f
                0x0002cba8       0xe0 c:/siliconlabs/simplicitystudio/v4/developer/toolchains/gnu_arm/4.9_2015q3/bin/../lib/gcc/arm-none-eabi/4.9.3/../../../../arm-none-eabi/lib/armv7e-m/fpu\libm.a(lib_a-ef_log10.o)
                0x0002cba8                __ieee754_log10f
 .text.__ieee754_sqrtf
                0x0002cc88       0xa4 c:/siliconlabs/simplicitystudio/v4/developer/toolchains/gnu_arm/4.9_2015q3/bin/../lib/gcc/arm-none-eabi/4.9.3/../../../../arm-none-eabi/lib/armv7e-m/fpu\libm.a(lib_a-ef_sqrt.o)
                0x0002cc88                __ieee754_sqrtf
 .text.matherr  0x0002cd2c        0x4 c:/siliconlabs/simplicitystudio/v4/developer/toolchains/gnu_arm/4.9_2015q3/bin/../lib/gcc/arm-none-eabi/4.9.3/../../../../arm-none-eabi/lib/armv7e-m/fpu\libm.a(lib_a-s_matherr.o)
                0x0002cd2c                matherr
 .text.nan      0x0002cd30       0x10 c:/siliconlabs/simplicitystudio/v4/developer/toolchains/gnu_arm/4.9_2015q3/bin/../lib/gcc/arm-none-eabi/4.9.3/../../../../arm-none-eabi/lib/armv7e-m/fpu\libm.a(lib_a-s_nan.o)
                0x0002cd30                nan
 .text.atanf    0x0002cd40      0x1b8 c:/siliconlabs/simplicitystudio/v4/developer/toolchains/gnu_arm/4.9_2015q3/bin/../lib/gcc/arm-none-eabi/4.9.3/../../../../arm-none-eabi/lib/armv7e-m/fpu\libm.a(lib_a-sf_atan.o)
                0x0002cd40                atanf
 .text.fabsf    0x0002cef8       0x10 c:/siliconlabs/simplicitystudio/v4/developer/toolchains/gnu_arm/4.9_2015q3/bin/../lib/gcc/arm-none-eabi/4.9.3/../../../../arm-none-eabi/lib/armv7e-m/fpu\libm.a(lib_a-sf_fabs.o)
                0x0002cef8                fabsf
 .text.__fpclassifyf
                0x0002cf08       0x38 c:/siliconlabs/simplicitystudio/v4/developer/toolchains/gnu_arm/4.9_2015q3/bin/../lib/gcc/arm-none-eabi/4.9.3/../../../../arm-none-eabi/lib/armv7e-m/fpu\libm.a(lib_a-sf_fpclassify.o)
                0x0002cf08                __fpclassifyf
 .text.__ieee754_logf
                0x0002cf40      0x218 c:/siliconlabs/simplicitystudio/v4/developer/toolchains/gnu_arm/4.9_2015q3/bin/../lib/gcc/arm-none-eabi/4.9.3/../../../../arm-none-eabi/lib/armv7e-m/fpu\libm.a(lib_a-ef_log.o)
                0x0002cf40                __ieee754_logf
 .text          0x0002d158      0x370 c:/siliconlabs/simplicitystudio/v4/developer/toolchains/gnu_arm/4.9_2015q3/bin/../lib/gcc/arm-none-eabi/4.9.3/armv7e-m/fpu\libgcc.a(_arm_addsubdf3.o)
                0x0002d158                __aeabi_drsub
                0x0002d160                __aeabi_dsub
                0x0002d160                __subdf3
                0x0002d164                __aeabi_dadd
                0x0002d164                __adddf3
                0x0002d3dc                __floatunsidf
                0x0002d3dc                __aeabi_ui2d
                0x0002d3fc                __floatsidf
                0x0002d3fc                __aeabi_i2d
                0x0002d420                __aeabi_f2d
                0x0002d420                __extendsfdf2
                0x0002d45c                __floatundidf
                0x0002d45c                __aeabi_ul2d
                0x0002d46c                __floatdidf
                0x0002d46c                __aeabi_l2d
 .text          0x0002d4c8      0x424 c:/siliconlabs/simplicitystudio/v4/developer/toolchains/gnu_arm/4.9_2015q3/bin/../lib/gcc/arm-none-eabi/4.9.3/armv7e-m/fpu\libgcc.a(_arm_muldivdf3.o)
                0x0002d4c8                __aeabi_dmul
                0x0002d4c8                __muldf3
                0x0002d71c                __divdf3
                0x0002d71c                __aeabi_ddiv
 .text          0x0002d8ec      0x110 c:/siliconlabs/simplicitystudio/v4/developer/toolchains/gnu_arm/4.9_2015q3/bin/../lib/gcc/arm-none-eabi/4.9.3/armv7e-m/fpu\libgcc.a(_arm_cmpdf2.o)
                0x0002d8ec                __gtdf2
                0x0002d8ec                __gedf2
                0x0002d8f4                __ltdf2
                0x0002d8f4                __ledf2
                0x0002d8fc                __nedf2
                0x0002d8fc                __eqdf2
                0x0002d8fc                __cmpdf2
                0x0002d978                __aeabi_cdrcmple
                0x0002d988                __aeabi_cdcmpeq
                0x0002d988                __aeabi_cdcmple
                0x0002d998                __aeabi_dcmpeq
                0x0002d9ac                __aeabi_dcmplt
                0x0002d9c0                __aeabi_dcmple
                0x0002d9d4                __aeabi_dcmpge
                0x0002d9e8                __aeabi_dcmpgt
 .text          0x0002d9fc       0x50 c:/siliconlabs/simplicitystudio/v4/developer/toolchains/gnu_arm/4.9_2015q3/bin/../lib/gcc/arm-none-eabi/4.9.3/armv7e-m/fpu\libgcc.a(_arm_fixdfsi.o)
                0x0002d9fc                __aeabi_d2iz
                0x0002d9fc                __fixdfsi
 .text          0x0002da4c       0xa0 c:/siliconlabs/simplicitystudio/v4/developer/toolchains/gnu_arm/4.9_2015q3/bin/../lib/gcc/arm-none-eabi/4.9.3/armv7e-m/fpu\libgcc.a(_arm_truncdfsf2.o)
                0x0002da4c                __truncdfsf2
                0x0002da4c                __aeabi_d2f
 .text          0x0002daec       0x38 c:/siliconlabs/simplicitystudio/v4/developer/toolchains/gnu_arm/4.9_2015q3/bin/../lib/gcc/arm-none-eabi/4.9.3/armv7e-m/fpu\libgcc.a(_aeabi_ldivmod.o)
                0x0002daec                __aeabi_ldivmod
 .text          0x0002db24       0x30 c:/siliconlabs/simplicitystudio/v4/developer/toolchains/gnu_arm/4.9_2015q3/bin/../lib/gcc/arm-none-eabi/4.9.3/armv7e-m/fpu\libgcc.a(_aeabi_uldivmod.o)
                0x0002db24                __aeabi_uldivmod
 .text          0x0002db54       0x60 c:/siliconlabs/simplicitystudio/v4/developer/toolchains/gnu_arm/4.9_2015q3/bin/../lib/gcc/arm-none-eabi/4.9.3/armv7e-m/fpu\libgcc.a(bpabi.o)
                0x0002db54                __gnu_ldivmod_helper
                0x0002db84                __gnu_uldivmod_helper
 .text          0x0002dbb4        0x4 c:/siliconlabs/simplicitystudio/v4/developer/toolchains/gnu_arm/4.9_2015q3/bin/../lib/gcc/arm-none-eabi/4.9.3/armv7e-m/fpu\libgcc.a(_dvmd_tls.o)
                0x0002dbb4                __aeabi_idiv0
                0x0002dbb4                __aeabi_ldiv0
 .text          0x0002dbb8      0x29c c:/siliconlabs/simplicitystudio/v4/developer/toolchains/gnu_arm/4.9_2015q3/bin/../lib/gcc/arm-none-eabi/4.9.3/armv7e-m/fpu\libgcc.a(_divdi3.o)
                0x0002dbb8                __divdi3
 .text          0x0002de54      0x26c c:/siliconlabs/simplicitystudio/v4/developer/toolchains/gnu_arm/4.9_2015q3/bin/../lib/gcc/arm-none-eabi/4.9.3/armv7e-m/fpu\libgcc.a(_udivdi3.o)
                0x0002de54                __udivdi3
 .text.__errno  0x0002e0c0        0xc c:/siliconlabs/simplicitystudio/v4/developer/toolchains/gnu_arm/4.9_2015q3/bin/../lib/gcc/arm-none-eabi/4.9.3/../../../../arm-none-eabi/lib/armv7e-m/fpu\libc.a(lib_a-errno.o)
                0x0002e0c0                __errno
 .text.exit     0x0002e0cc       0x20 c:/siliconlabs/simplicitystudio/v4/developer/toolchains/gnu_arm/4.9_2015q3/bin/../lib/gcc/arm-none-eabi/4.9.3/../../../../arm-none-eabi/lib/armv7e-m/fpu\libc.a(lib_a-exit.o)
                0x0002e0cc                exit
 .text.__libc_init_array
                0x0002e0ec       0x50 c:/siliconlabs/simplicitystudio/v4/developer/toolchains/gnu_arm/4.9_2015q3/bin/../lib/gcc/arm-none-eabi/4.9.3/../../../../arm-none-eabi/lib/armv7e-m/fpu\libc.a(lib_a-init.o)
                0x0002e0ec                __libc_init_array
 .text          0x0002e13c      0x134 c:/siliconlabs/simplicitystudio/v4/developer/toolchains/gnu_arm/4.9_2015q3/bin/../lib/gcc/arm-none-eabi/4.9.3/../../../../arm-none-eabi/lib/armv7e-m/fpu\libc.a(lib_a-memcpy.o)
                0x0002e13c                memcpy
 .text.memset   0x0002e270       0x9c c:/siliconlabs/simplicitystudio/v4/developer/toolchains/gnu_arm/4.9_2015q3/bin/../lib/gcc/arm-none-eabi/4.9.3/../../../../arm-none-eabi/lib/armv7e-m/fpu\libc.a(lib_a-memset.o)
                0x0002e270                memset
 .text.printf   0x0002e30c       0x28 c:/siliconlabs/simplicitystudio/v4/developer/toolchains/gnu_arm/4.9_2015q3/bin/../lib/gcc/arm-none-eabi/4.9.3/../../../../arm-none-eabi/lib/armv7e-m/fpu\libc.a(lib_a-printf.o)
                0x0002e30c                printf
 .text._puts_r  0x0002e334       0x64 c:/siliconlabs/simplicitystudio/v4/developer/toolchains/gnu_arm/4.9_2015q3/bin/../lib/gcc/arm-none-eabi/4.9.3/../../../../arm-none-eabi/lib/armv7e-m/fpu\libc.a(lib_a-puts.o)
                0x0002e334                _puts_r
 .text.puts     0x0002e398       0x10 c:/siliconlabs/simplicitystudio/v4/developer/toolchains/gnu_arm/4.9_2015q3/bin/../lib/gcc/arm-none-eabi/4.9.3/../../../../arm-none-eabi/lib/armv7e-m/fpu\libc.a(lib_a-puts.o)
                0x0002e398                puts
 .text.setvbuf  0x0002e3a8       0xf8 c:/siliconlabs/simplicitystudio/v4/developer/toolchains/gnu_arm/4.9_2015q3/bin/../lib/gcc/arm-none-eabi/4.9.3/../../../../arm-none-eabi/lib/armv7e-m/fpu\libc.a(lib_a-setvbuf.o)
                0x0002e3a8                setvbuf
 .text.snprintf
                0x0002e4a0       0x9c c:/siliconlabs/simplicitystudio/v4/developer/toolchains/gnu_arm/4.9_2015q3/bin/../lib/gcc/arm-none-eabi/4.9.3/../../../../arm-none-eabi/lib/armv7e-m/fpu\libc.a(lib_a-snprintf.o)
                0x0002e4a0                snprintf
 .text.sprintf  0x0002e53c       0x4c c:/siliconlabs/simplicitystudio/v4/developer/toolchains/gnu_arm/4.9_2015q3/bin/../lib/gcc/arm-none-eabi/4.9.3/../../../../arm-none-eabi/lib/armv7e-m/fpu\libc.a(lib_a-sprintf.o)
                0x0002e53c                sprintf
 .text.strlen   0x0002e588       0x5c c:/siliconlabs/simplicitystudio/v4/developer/toolchains/gnu_arm/4.9_2015q3/bin/../lib/gcc/arm-none-eabi/4.9.3/../../../../arm-none-eabi/lib/armv7e-m/fpu\libc.a(lib_a-strlen.o)
                0x0002e588                strlen
 .text.strncpy  0x0002e5e4       0x68 c:/siliconlabs/simplicitystudio/v4/developer/toolchains/gnu_arm/4.9_2015q3/bin/../lib/gcc/arm-none-eabi/4.9.3/../../../../arm-none-eabi/lib/armv7e-m/fpu\libc.a(lib_a-strncpy.o)
                0x0002e5e4                strncpy
 *fill*         0x0002e64c        0x4 
 .text._svfprintf_r
                0x0002e650     0x14cc c:/siliconlabs/simplicitystudio/v4/developer/toolchains/gnu_arm/4.9_2015q3/bin/../lib/gcc/arm-none-eabi/4.9.3/../../../../arm-none-eabi/lib/armv7e-m/fpu\libc.a(lib_a-svfprintf.o)
                0x0002e650                _svfprintf_r
 *fill*         0x0002fb1c        0x4 
 .text._vfprintf_r
                0x0002fb20     0x1424 c:/siliconlabs/simplicitystudio/v4/developer/toolchains/gnu_arm/4.9_2015q3/bin/../lib/gcc/arm-none-eabi/4.9.3/../../../../arm-none-eabi/lib/armv7e-m/fpu\libc.a(lib_a-vfprintf.o)
                0x0002fb20                _vfprintf_r
 .text.__sbprintf
                0x00030f44       0x78 c:/siliconlabs/simplicitystudio/v4/developer/toolchains/gnu_arm/4.9_2015q3/bin/../lib/gcc/arm-none-eabi/4.9.3/../../../../arm-none-eabi/lib/armv7e-m/fpu\libc.a(lib_a-vfprintf.o)
 .text.__swsetup_r
                0x00030fbc       0xc4 c:/siliconlabs/simplicitystudio/v4/developer/toolchains/gnu_arm/4.9_2015q3/bin/../lib/gcc/arm-none-eabi/4.9.3/../../../../arm-none-eabi/lib/armv7e-m/fpu\libc.a(lib_a-wsetup.o)
                0x00030fbc                __swsetup_r
 .text.startup.register_fini
                0x00031080       0x14 c:/siliconlabs/simplicitystudio/v4/developer/toolchains/gnu_arm/4.9_2015q3/bin/../lib/gcc/arm-none-eabi/4.9.3/../../../../arm-none-eabi/lib/armv7e-m/fpu\libc.a(lib_a-__call_atexit.o)
 .text.__call_exitprocs
                0x00031094       0xd4 c:/siliconlabs/simplicitystudio/v4/developer/toolchains/gnu_arm/4.9_2015q3/bin/../lib/gcc/arm-none-eabi/4.9.3/../../../../arm-none-eabi/lib/armv7e-m/fpu\libc.a(lib_a-__call_atexit.o)
                0x00031094                __call_exitprocs
 .text.atexit   0x00031168        0xc c:/siliconlabs/simplicitystudio/v4/developer/toolchains/gnu_arm/4.9_2015q3/bin/../lib/gcc/arm-none-eabi/4.9.3/../../../../arm-none-eabi/lib/armv7e-m/fpu\libc.a(lib_a-atexit.o)
                0x00031168                atexit
 .text.quorem   0x00031174      0x12c c:/siliconlabs/simplicitystudio/v4/developer/toolchains/gnu_arm/4.9_2015q3/bin/../lib/gcc/arm-none-eabi/4.9.3/../../../../arm-none-eabi/lib/armv7e-m/fpu\libc.a(lib_a-dtoa.o)
 .text._dtoa_r  0x000312a0      0xea4 c:/siliconlabs/simplicitystudio/v4/developer/toolchains/gnu_arm/4.9_2015q3/bin/../lib/gcc/arm-none-eabi/4.9.3/../../../../arm-none-eabi/lib/armv7e-m/fpu\libc.a(lib_a-dtoa.o)
                0x000312a0                _dtoa_r
 .text.__sflush_r
                0x00032144      0x154 c:/siliconlabs/simplicitystudio/v4/developer/toolchains/gnu_arm/4.9_2015q3/bin/../lib/gcc/arm-none-eabi/4.9.3/../../../../arm-none-eabi/lib/armv7e-m/fpu\libc.a(lib_a-fflush.o)
                0x00032144                __sflush_r
 .text._fflush_r
                0x00032298       0x2c c:/siliconlabs/simplicitystudio/v4/developer/toolchains/gnu_arm/4.9_2015q3/bin/../lib/gcc/arm-none-eabi/4.9.3/../../../../arm-none-eabi/lib/armv7e-m/fpu\libc.a(lib_a-fflush.o)
                0x00032298                _fflush_r
 .text._cleanup_r
                0x000322c4        0xc c:/siliconlabs/simplicitystudio/v4/developer/toolchains/gnu_arm/4.9_2015q3/bin/../lib/gcc/arm-none-eabi/4.9.3/../../../../arm-none-eabi/lib/armv7e-m/fpu\libc.a(lib_a-findfp.o)
                0x000322c4                _cleanup_r
 .text.__sinit.part.1
                0x000322d0       0xf0 c:/siliconlabs/simplicitystudio/v4/developer/toolchains/gnu_arm/4.9_2015q3/bin/../lib/gcc/arm-none-eabi/4.9.3/../../../../arm-none-eabi/lib/armv7e-m/fpu\libc.a(lib_a-findfp.o)
 .text.__sinit  0x000323c0        0xc c:/siliconlabs/simplicitystudio/v4/developer/toolchains/gnu_arm/4.9_2015q3/bin/../lib/gcc/arm-none-eabi/4.9.3/../../../../arm-none-eabi/lib/armv7e-m/fpu\libc.a(lib_a-findfp.o)
                0x000323c0                __sinit
 .text.__sfp_lock_acquire
                0x000323cc        0x4 c:/siliconlabs/simplicitystudio/v4/developer/toolchains/gnu_arm/4.9_2015q3/bin/../lib/gcc/arm-none-eabi/4.9.3/../../../../arm-none-eabi/lib/armv7e-m/fpu\libc.a(lib_a-findfp.o)
                0x000323cc                __sfp_lock_acquire
 .text.__sfp_lock_release
                0x000323d0        0x4 c:/siliconlabs/simplicitystudio/v4/developer/toolchains/gnu_arm/4.9_2015q3/bin/../lib/gcc/arm-none-eabi/4.9.3/../../../../arm-none-eabi/lib/armv7e-m/fpu\libc.a(lib_a-findfp.o)
                0x000323d0                __sfp_lock_release
 .text.__libc_fini_array
                0x000323d4       0x2c c:/siliconlabs/simplicitystudio/v4/developer/toolchains/gnu_arm/4.9_2015q3/bin/../lib/gcc/arm-none-eabi/4.9.3/../../../../arm-none-eabi/lib/armv7e-m/fpu\libc.a(lib_a-fini.o)
                0x000323d4                __libc_fini_array
 .text._malloc_trim_r
                0x00032400       0x9c c:/siliconlabs/simplicitystudio/v4/developer/toolchains/gnu_arm/4.9_2015q3/bin/../lib/gcc/arm-none-eabi/4.9.3/../../../../arm-none-eabi/lib/armv7e-m/fpu\libc.a(lib_a-freer.o)
                0x00032400                _malloc_trim_r
 .text._free_r  0x0003249c      0x1b0 c:/siliconlabs/simplicitystudio/v4/developer/toolchains/gnu_arm/4.9_2015q3/bin/../lib/gcc/arm-none-eabi/4.9.3/../../../../arm-none-eabi/lib/armv7e-m/fpu\libc.a(lib_a-freer.o)
                0x0003249c                _free_r
 .text.__sfvwrite_r
                0x0003264c      0x318 c:/siliconlabs/simplicitystudio/v4/developer/toolchains/gnu_arm/4.9_2015q3/bin/../lib/gcc/arm-none-eabi/4.9.3/../../../../arm-none-eabi/lib/armv7e-m/fpu\libc.a(lib_a-fvwrite.o)
                0x0003264c                __sfvwrite_r
 .text._fwalk_reent
                0x00032964       0x54 c:/siliconlabs/simplicitystudio/v4/developer/toolchains/gnu_arm/4.9_2015q3/bin/../lib/gcc/arm-none-eabi/4.9.3/../../../../arm-none-eabi/lib/armv7e-m/fpu\libc.a(lib_a-fwalk.o)
                0x00032964                _fwalk_reent
 .text.__locale_charset
                0x000329b8        0x8 c:/siliconlabs/simplicitystudio/v4/developer/toolchains/gnu_arm/4.9_2015q3/bin/../lib/gcc/arm-none-eabi/4.9.3/../../../../arm-none-eabi/lib/armv7e-m/fpu\libc.a(lib_a-locale.o)
                0x000329b8                __locale_charset
 .text.__locale_mb_cur_max
                0x000329c0        0xc c:/siliconlabs/simplicitystudio/v4/developer/toolchains/gnu_arm/4.9_2015q3/bin/../lib/gcc/arm-none-eabi/4.9.3/../../../../arm-none-eabi/lib/armv7e-m/fpu\libc.a(lib_a-locale.o)
                0x000329c0                __locale_mb_cur_max
 .text._localeconv_r
                0x000329cc        0x8 c:/siliconlabs/simplicitystudio/v4/developer/toolchains/gnu_arm/4.9_2015q3/bin/../lib/gcc/arm-none-eabi/4.9.3/../../../../arm-none-eabi/lib/armv7e-m/fpu\libc.a(lib_a-locale.o)
                0x000329cc                _localeconv_r
 .text.__smakebuf_r
                0x000329d4       0xe0 c:/siliconlabs/simplicitystudio/v4/developer/toolchains/gnu_arm/4.9_2015q3/bin/../lib/gcc/arm-none-eabi/4.9.3/../../../../arm-none-eabi/lib/armv7e-m/fpu\libc.a(lib_a-makebuf.o)
                0x000329d4                __smakebuf_r
 .text.malloc   0x00032ab4       0x10 c:/siliconlabs/simplicitystudio/v4/developer/toolchains/gnu_arm/4.9_2015q3/bin/../lib/gcc/arm-none-eabi/4.9.3/../../../../arm-none-eabi/lib/armv7e-m/fpu\libc.a(lib_a-malloc.o)
                0x00032ab4                malloc
 .text.free     0x00032ac4       0x10 c:/siliconlabs/simplicitystudio/v4/developer/toolchains/gnu_arm/4.9_2015q3/bin/../lib/gcc/arm-none-eabi/4.9.3/../../../../arm-none-eabi/lib/armv7e-m/fpu\libc.a(lib_a-malloc.o)
                0x00032ac4                free
 .text._malloc_r
                0x00032ad4      0x524 c:/siliconlabs/simplicitystudio/v4/developer/toolchains/gnu_arm/4.9_2015q3/bin/../lib/gcc/arm-none-eabi/4.9.3/../../../../arm-none-eabi/lib/armv7e-m/fpu\libc.a(lib_a-mallocr.o)
                0x00032ad4                _malloc_r
 .text.memchr   0x00032ff8       0x94 c:/siliconlabs/simplicitystudio/v4/developer/toolchains/gnu_arm/4.9_2015q3/bin/../lib/gcc/arm-none-eabi/4.9.3/../../../../arm-none-eabi/lib/armv7e-m/fpu\libc.a(lib_a-memchr.o)
                0x00032ff8                memchr
 .text.memmove  0x0003308c       0xc8 c:/siliconlabs/simplicitystudio/v4/developer/toolchains/gnu_arm/4.9_2015q3/bin/../lib/gcc/arm-none-eabi/4.9.3/../../../../arm-none-eabi/lib/armv7e-m/fpu\libc.a(lib_a-memmove.o)
                0x0003308c                memmove
 .text.__malloc_lock
                0x00033154        0x4 c:/siliconlabs/simplicitystudio/v4/developer/toolchains/gnu_arm/4.9_2015q3/bin/../lib/gcc/arm-none-eabi/4.9.3/../../../../arm-none-eabi/lib/armv7e-m/fpu\libc.a(lib_a-mlock.o)
                0x00033154                __malloc_lock
 .text.__malloc_unlock
                0x00033158        0x4 c:/siliconlabs/simplicitystudio/v4/developer/toolchains/gnu_arm/4.9_2015q3/bin/../lib/gcc/arm-none-eabi/4.9.3/../../../../arm-none-eabi/lib/armv7e-m/fpu\libc.a(lib_a-mlock.o)
                0x00033158                __malloc_unlock
 .text._Balloc  0x0003315c       0x4c c:/siliconlabs/simplicitystudio/v4/developer/toolchains/gnu_arm/4.9_2015q3/bin/../lib/gcc/arm-none-eabi/4.9.3/../../../../arm-none-eabi/lib/armv7e-m/fpu\libc.a(lib_a-mprec.o)
                0x0003315c                _Balloc
 .text._Bfree   0x000331a8       0x14 c:/siliconlabs/simplicitystudio/v4/developer/toolchains/gnu_arm/4.9_2015q3/bin/../lib/gcc/arm-none-eabi/4.9.3/../../../../arm-none-eabi/lib/armv7e-m/fpu\libc.a(lib_a-mprec.o)
                0x000331a8                _Bfree
 .text.__multadd
                0x000331bc       0x84 c:/siliconlabs/simplicitystudio/v4/developer/toolchains/gnu_arm/4.9_2015q3/bin/../lib/gcc/arm-none-eabi/4.9.3/../../../../arm-none-eabi/lib/armv7e-m/fpu\libc.a(lib_a-mprec.o)
                0x000331bc                __multadd
 .text.__hi0bits
                0x00033240       0x40 c:/siliconlabs/simplicitystudio/v4/developer/toolchains/gnu_arm/4.9_2015q3/bin/../lib/gcc/arm-none-eabi/4.9.3/../../../../arm-none-eabi/lib/armv7e-m/fpu\libc.a(lib_a-mprec.o)
                0x00033240                __hi0bits
 .text.__lo0bits
                0x00033280       0x5c c:/siliconlabs/simplicitystudio/v4/developer/toolchains/gnu_arm/4.9_2015q3/bin/../lib/gcc/arm-none-eabi/4.9.3/../../../../arm-none-eabi/lib/armv7e-m/fpu\libc.a(lib_a-mprec.o)
                0x00033280                __lo0bits
 .text.__i2b    0x000332dc       0x14 c:/siliconlabs/simplicitystudio/v4/developer/toolchains/gnu_arm/4.9_2015q3/bin/../lib/gcc/arm-none-eabi/4.9.3/../../../../arm-none-eabi/lib/armv7e-m/fpu\libc.a(lib_a-mprec.o)
                0x000332dc                __i2b
 .text.__multiply
                0x000332f0      0x134 c:/siliconlabs/simplicitystudio/v4/developer/toolchains/gnu_arm/4.9_2015q3/bin/../lib/gcc/arm-none-eabi/4.9.3/../../../../arm-none-eabi/lib/armv7e-m/fpu\libc.a(lib_a-mprec.o)
                0x000332f0                __multiply
 .text.__pow5mult
                0x00033424       0xa0 c:/siliconlabs/simplicitystudio/v4/developer/toolchains/gnu_arm/4.9_2015q3/bin/../lib/gcc/arm-none-eabi/4.9.3/../../../../arm-none-eabi/lib/armv7e-m/fpu\libc.a(lib_a-mprec.o)
                0x00033424                __pow5mult
 .text.__lshift
                0x000334c4       0xac c:/siliconlabs/simplicitystudio/v4/developer/toolchains/gnu_arm/4.9_2015q3/bin/../lib/gcc/arm-none-eabi/4.9.3/../../../../arm-none-eabi/lib/armv7e-m/fpu\libc.a(lib_a-mprec.o)
                0x000334c4                __lshift
 .text.__mcmp   0x00033570       0x48 c:/siliconlabs/simplicitystudio/v4/developer/toolchains/gnu_arm/4.9_2015q3/bin/../lib/gcc/arm-none-eabi/4.9.3/../../../../arm-none-eabi/lib/armv7e-m/fpu\libc.a(lib_a-mprec.o)
                0x00033570                __mcmp
 .text.__mdiff  0x000335b8       0xd4 c:/siliconlabs/simplicitystudio/v4/developer/toolchains/gnu_arm/4.9_2015q3/bin/../lib/gcc/arm-none-eabi/4.9.3/../../../../arm-none-eabi/lib/armv7e-m/fpu\libc.a(lib_a-mprec.o)
                0x000335b8                __mdiff
 .text.__d2b    0x0003368c       0xbc c:/siliconlabs/simplicitystudio/v4/developer/toolchains/gnu_arm/4.9_2015q3/bin/../lib/gcc/arm-none-eabi/4.9.3/../../../../arm-none-eabi/lib/armv7e-m/fpu\libc.a(lib_a-mprec.o)
                0x0003368c                __d2b
 .text._realloc_r
                0x00033748      0x3ec c:/siliconlabs/simplicitystudio/v4/developer/toolchains/gnu_arm/4.9_2015q3/bin/../lib/gcc/arm-none-eabi/4.9.3/../../../../arm-none-eabi/lib/armv7e-m/fpu\libc.a(lib_a-reallocr.o)
                0x00033748                _realloc_r
 .text.__fpclassifyd
                0x00033b34       0x5c c:/siliconlabs/simplicitystudio/v4/developer/toolchains/gnu_arm/4.9_2015q3/bin/../lib/gcc/arm-none-eabi/4.9.3/../../../../arm-none-eabi/lib/armv7e-m/fpu\libc.a(lib_a-s_fpclassify.o)
                0x00033b34                __fpclassifyd
 .text._sbrk_r  0x00033b90       0x24 c:/siliconlabs/simplicitystudio/v4/developer/toolchains/gnu_arm/4.9_2015q3/bin/../lib/gcc/arm-none-eabi/4.9.3/../../../../arm-none-eabi/lib/armv7e-m/fpu\libc.a(lib_a-sbrkr.o)
                0x00033b90                _sbrk_r
 .text.__sread  0x00033bb4       0x24 c:/siliconlabs/simplicitystudio/v4/developer/toolchains/gnu_arm/4.9_2015q3/bin/../lib/gcc/arm-none-eabi/4.9.3/../../../../arm-none-eabi/lib/armv7e-m/fpu\libc.a(lib_a-stdio.o)
                0x00033bb4                __sread
 .text.__swrite
                0x00033bd8       0x38 c:/siliconlabs/simplicitystudio/v4/developer/toolchains/gnu_arm/4.9_2015q3/bin/../lib/gcc/arm-none-eabi/4.9.3/../../../../arm-none-eabi/lib/armv7e-m/fpu\libc.a(lib_a-stdio.o)
                0x00033bd8                __swrite
 .text.__sseek  0x00033c10       0x20 c:/siliconlabs/simplicitystudio/v4/developer/toolchains/gnu_arm/4.9_2015q3/bin/../lib/gcc/arm-none-eabi/4.9.3/../../../../arm-none-eabi/lib/armv7e-m/fpu\libc.a(lib_a-stdio.o)
                0x00033c10                __sseek
 .text.__sclose
                0x00033c30        0x8 c:/siliconlabs/simplicitystudio/v4/developer/toolchains/gnu_arm/4.9_2015q3/bin/../lib/gcc/arm-none-eabi/4.9.3/../../../../arm-none-eabi/lib/armv7e-m/fpu\libc.a(lib_a-stdio.o)
                0x00033c30                __sclose
 .text.__ssprint_r
                0x00033c38      0x104 c:/siliconlabs/simplicitystudio/v4/developer/toolchains/gnu_arm/4.9_2015q3/bin/../lib/gcc/arm-none-eabi/4.9.3/../../../../arm-none-eabi/lib/armv7e-m/fpu\libc.a(lib_a-svfiprintf.o)
                0x00033c38                __ssprint_r
 .text.__sprint_r.part.0
                0x00033d3c       0x78 c:/siliconlabs/simplicitystudio/v4/developer/toolchains/gnu_arm/4.9_2015q3/bin/../lib/gcc/arm-none-eabi/4.9.3/../../../../arm-none-eabi/lib/armv7e-m/fpu\libc.a(lib_a-vfiprintf.o)
 .text.__sprint_r
                0x00033db4       0x18 c:/siliconlabs/simplicitystudio/v4/developer/toolchains/gnu_arm/4.9_2015q3/bin/../lib/gcc/arm-none-eabi/4.9.3/../../../../arm-none-eabi/lib/armv7e-m/fpu\libc.a(lib_a-vfiprintf.o)
                0x00033db4                __sprint_r
 .text._write_r
                0x00033dcc       0x28 c:/siliconlabs/simplicitystudio/v4/developer/toolchains/gnu_arm/4.9_2015q3/bin/../lib/gcc/arm-none-eabi/4.9.3/../../../../arm-none-eabi/lib/armv7e-m/fpu\libc.a(lib_a-writer.o)
                0x00033dcc                _write_r
 .text.__register_exitproc
                0x00033df4       0xa4 c:/siliconlabs/simplicitystudio/v4/developer/toolchains/gnu_arm/4.9_2015q3/bin/../lib/gcc/arm-none-eabi/4.9.3/../../../../arm-none-eabi/lib/armv7e-m/fpu\libc.a(lib_a-__atexit.o)
                0x00033df4                __register_exitproc
 .text._calloc_r
                0x00033e98       0x60 c:/siliconlabs/simplicitystudio/v4/developer/toolchains/gnu_arm/4.9_2015q3/bin/../lib/gcc/arm-none-eabi/4.9.3/../../../../arm-none-eabi/lib/armv7e-m/fpu\libc.a(lib_a-callocr.o)
                0x00033e98                _calloc_r
 .text._close_r
                0x00033ef8       0x24 c:/siliconlabs/simplicitystudio/v4/developer/toolchains/gnu_arm/4.9_2015q3/bin/../lib/gcc/arm-none-eabi/4.9.3/../../../../arm-none-eabi/lib/armv7e-m/fpu\libc.a(lib_a-closer.o)
                0x00033ef8                _close_r
 .text._fclose_r
                0x00033f1c       0x84 c:/siliconlabs/simplicitystudio/v4/developer/toolchains/gnu_arm/4.9_2015q3/bin/../lib/gcc/arm-none-eabi/4.9.3/../../../../arm-none-eabi/lib/armv7e-m/fpu\libc.a(lib_a-fclose.o)
                0x00033f1c                _fclose_r
 .text.__fputwc
                0x00033fa0       0xb0 c:/siliconlabs/simplicitystudio/v4/developer/toolchains/gnu_arm/4.9_2015q3/bin/../lib/gcc/arm-none-eabi/4.9.3/../../../../arm-none-eabi/lib/armv7e-m/fpu\libc.a(lib_a-fputwc.o)
                0x00033fa0                __fputwc
 .text._fputwc_r
                0x00034050       0x24 c:/siliconlabs/simplicitystudio/v4/developer/toolchains/gnu_arm/4.9_2015q3/bin/../lib/gcc/arm-none-eabi/4.9.3/../../../../arm-none-eabi/lib/armv7e-m/fpu\libc.a(lib_a-fputwc.o)
                0x00034050                _fputwc_r
 .text._fstat_r
                0x00034074       0x28 c:/siliconlabs/simplicitystudio/v4/developer/toolchains/gnu_arm/4.9_2015q3/bin/../lib/gcc/arm-none-eabi/4.9.3/../../../../arm-none-eabi/lib/armv7e-m/fpu\libc.a(lib_a-fstatr.o)
                0x00034074                _fstat_r
 .text._isatty_r
                0x0003409c       0x24 c:/siliconlabs/simplicitystudio/v4/developer/toolchains/gnu_arm/4.9_2015q3/bin/../lib/gcc/arm-none-eabi/4.9.3/../../../../arm-none-eabi/lib/armv7e-m/fpu\libc.a(lib_a-isattyr.o)
                0x0003409c                _isatty_r
 .text._lseek_r
                0x000340c0       0x28 c:/siliconlabs/simplicitystudio/v4/developer/toolchains/gnu_arm/4.9_2015q3/bin/../lib/gcc/arm-none-eabi/4.9.3/../../../../arm-none-eabi/lib/armv7e-m/fpu\libc.a(lib_a-lseekr.o)
                0x000340c0                _lseek_r
 .text._read_r  0x000340e8       0x28 c:/siliconlabs/simplicitystudio/v4/developer/toolchains/gnu_arm/4.9_2015q3/bin/../lib/gcc/arm-none-eabi/4.9.3/../../../../arm-none-eabi/lib/armv7e-m/fpu\libc.a(lib_a-readr.o)
                0x000340e8                _read_r
 .text.__swbuf_r
                0x00034110       0xa8 c:/siliconlabs/simplicitystudio/v4/developer/toolchains/gnu_arm/4.9_2015q3/bin/../lib/gcc/arm-none-eabi/4.9.3/../../../../arm-none-eabi/lib/armv7e-m/fpu\libc.a(lib_a-wbuf.o)
                0x00034110                __swbuf_r
 .text._wcrtomb_r
                0x000341b8       0x54 c:/siliconlabs/simplicitystudio/v4/developer/toolchains/gnu_arm/4.9_2015q3/bin/../lib/gcc/arm-none-eabi/4.9.3/../../../../arm-none-eabi/lib/armv7e-m/fpu\libc.a(lib_a-wcrtomb.o)
                0x000341b8                _wcrtomb_r
 .text.__ascii_wctomb
                0x0003420c       0x1c c:/siliconlabs/simplicitystudio/v4/developer/toolchains/gnu_arm/4.9_2015q3/bin/../lib/gcc/arm-none-eabi/4.9.3/../../../../arm-none-eabi/lib/armv7e-m/fpu\libc.a(lib_a-wctomb_r.o)
                0x0003420c                __ascii_wctomb
 *(.init)
 .init          0x00034228        0x4 c:/siliconlabs/simplicitystudio/v4/developer/toolchains/gnu_arm/4.9_2015q3/bin/../lib/gcc/arm-none-eabi/4.9.3/armv7e-m/fpu/crti.o
                0x00034228                _init
 .init          0x0003422c        0x8 c:/siliconlabs/simplicitystudio/v4/developer/toolchains/gnu_arm/4.9_2015q3/bin/../lib/gcc/arm-none-eabi/4.9.3/armv7e-m/fpu/crtn.o
 *(.fini)
 .fini          0x00034234        0x4 c:/siliconlabs/simplicitystudio/v4/developer/toolchains/gnu_arm/4.9_2015q3/bin/../lib/gcc/arm-none-eabi/4.9.3/armv7e-m/fpu/crti.o
                0x00034234                _fini
 .fini          0x00034238        0x8 c:/siliconlabs/simplicitystudio/v4/developer/toolchains/gnu_arm/4.9_2015q3/bin/../lib/gcc/arm-none-eabi/4.9.3/armv7e-m/fpu/crtn.o
 *crtbegin.o(.ctors)
 *crtbegin?.o(.ctors)
 *(EXCLUDE_FILE(*crtend.o *crtend?.o) .ctors)
 *(SORT(.ctors.*))
 *(.ctors)
 *crtbegin.o(.dtors)
 *crtbegin?.o(.dtors)
 *(EXCLUDE_FILE(*crtend.o *crtend?.o) .dtors)
 *(SORT(.dtors.*))
 *(.dtors)
 *(.rodata*)
 .rodata.str1.4
                0x00034240       0x1f ./advertisement-callback.o
 *fill*         0x0003425f        0x1 
 .rodata.str1.4
                0x00034260       0x69 ./aio.o
 *fill*         0x000342c9        0x3 
 .rodata.str1.4
                0x000342cc       0x14 ./app.o
 .rodata.str1.4
                0x000342e0       0xd2 ./app_ble.o
                                 0xe6 (size before relaxing)
 *fill*         0x000343b2        0x2 
 .rodata.str1.4
                0x000343b4       0x15 ./app_ble_adv.o
 *fill*         0x000343c9        0x3 
 .rodata.iBeaconUUID
                0x000343cc       0x10 ./app_ble_adv.o
 .rodata.str1.4
                0x000343dc        0x8 ./app_callback.o
 .rodata.str1.4
                0x000343e4       0x15 ./batt.o
 *fill*         0x000343f9        0x3 
 .rodata.str1.4
                0x000343fc       0x20 ./connection-callback.o
 .rodata.str1.4
                0x0003441c      0x124 ./es.o
 .rodata.str1.4
                0x00034540       0xc5 ./iaq.o
 *fill*         0x00034605        0x3 
 .rodata.str1.4
                0x00034608       0xbf ./imus.o
 *fill*         0x000346c7        0x1 
 .rodata.str1.4
                0x000346c8      0x1cf ./main.o
                                0x1d3 (size before relaxing)
 *fill*         0x00034897        0x1 
 .rodata        0x00034898       0x1c ./radio_ble.o
 .rodata.str1.4
                0x000348b4       0x1e ./radio_ble.o
 *fill*         0x000348d2        0x2 
 .rodata.str1.4
                0x000348d4       0x88 ./ui.o
 .rodata        0x0003495c       0x48 ./hardware/kit/common/bsp/thunderboard/board_4160.o
 .rodata.lightLevels
                0x000349a4      0x100 ./hardware/kit/common/bsp/thunderboard/board_4160.o
 .rodata        0x00034aa4       0x24 ./hardware/kit/common/bsp/thunderboard/icm20648.o
 .rodata        0x00034ac8       0x24 ./hardware/kit/common/bsp/thunderboard/mic.o
 .rodata        0x00034aec        0x6 ./hardware/kit/common/bsp/thunderboard/si7021.o
 *fill*         0x00034af2        0x2 
 .rodata.str1.4
                0x00034af4       0x2f ./hardware/kit/common/bsp/thunderboard/util_supply.o
 *fill*         0x00034b23        0x1 
 .rodata.str1.4
                0x00034b24       0xd5 ./hardware/kit/common/bsp/thunderboard/imu/imu.o
 *fill*         0x00034bf9        0x3 
 .rodata        0x00034bfc       0x2c ./hardware/kit/common/drivers/retargetserial.o
 .rodata        0x00034c28        0x4 ./platform/emdrv/dmadrv/src/dmadrv.o
 .rodata.CSWTCH.45
                0x00034c2c        0xc ./platform/emlib/src/em_cmu.o
 .rodata.CSWTCH.46
                0x00034c38       0x10 ./platform/emlib/src/em_cmu.o
 .rodata.CSWTCH.47
                0x00034c48       0x10 ./platform/emlib/src/em_cmu.o
 .rodata.CSWTCH.48
                0x00034c58       0x10 ./platform/emlib/src/em_cmu.o
 .rodata.i2cNSum
                0x00034c68        0x4 ./platform/emlib/src/em_i2c.o
 .rodata        0x00034c6c       0x28 C:\Users\admin\SimplicityStudio\v4_workspace\soc-thunderboard-sense\protocol\bluetooth_2.6\lib\EFR32MG1P\GCC\bgapi.a(gecko_bgapi_hardware.c.obj)
 .rodata        0x00034c94       0x30 C:\Users\admin\SimplicityStudio\v4_workspace\soc-thunderboard-sense\protocol\bluetooth_2.6\lib\EFR32MG1P\GCC\bgapi.a(gecko_bgapi_test.c.obj)
 .rodata        0x00034cc4       0x28 C:\Users\admin\SimplicityStudio\v4_workspace\soc-thunderboard-sense\protocol\bluetooth_2.6\lib\EFR32MG1P\GCC\bgapi.a(gecko_bgapi_dfu.c.obj)
 .rodata        0x00034cec       0x78 C:\Users\admin\SimplicityStudio\v4_workspace\soc-thunderboard-sense\protocol\bluetooth_2.6\lib\EFR32MG1P\GCC\bgapi.a(gecko_bgapi_gap.c.obj)
 .rodata        0x00034d64       0xa8 C:\Users\admin\SimplicityStudio\v4_workspace\soc-thunderboard-sense\protocol\bluetooth_2.6\lib\EFR32MG1P\GCC\bgapi.a(gecko_bgapi_gatt.c.obj)
 .rodata        0x00034e0c       0x50 C:\Users\admin\SimplicityStudio\v4_workspace\soc-thunderboard-sense\protocol\bluetooth_2.6\lib\EFR32MG1P\GCC\bgapi.a(gecko_bgapi_gatt_server.c.obj)
 .rodata        0x00034e5c       0x30 C:\Users\admin\SimplicityStudio\v4_workspace\soc-thunderboard-sense\protocol\bluetooth_2.6\lib\EFR32MG1P\GCC\bgapi.a(gecko_bgapi_flash.c.obj)
 .rodata        0x00034e8c       0x80 C:\Users\admin\SimplicityStudio\v4_workspace\soc-thunderboard-sense\protocol\bluetooth_2.6\lib\EFR32MG1P\GCC\bgapi.a(gecko_bgapi_sm.c.obj)
 .rodata        0x00034f0c       0x50 C:\Users\admin\SimplicityStudio\v4_workspace\soc-thunderboard-sense\protocol\bluetooth_2.6\lib\EFR32MG1P\GCC\bgapi.a(gecko_bgapi_system.c.obj)
 .rodata        0x00034f5c       0x10 C:\Users\admin\SimplicityStudio\v4_workspace\soc-thunderboard-sense\protocol\bluetooth_2.6\lib\EFR32MG1P\GCC\bgapi.a(gecko_bgapi_endpoint.c.obj)
 .rodata        0x00034f6c       0x30 C:\Users\admin\SimplicityStudio\v4_workspace\soc-thunderboard-sense\protocol\bluetooth_2.6\lib\EFR32MG1P\GCC\bgapi.a(gecko_bgapi_le_connection.c.obj)
 .rodata        0x00034f9c       0x18 C:\Users\admin\SimplicityStudio\v4_workspace\soc-thunderboard-sense\protocol\bluetooth_2.6\lib\EFR32MG1P\GCC\bgapi.a(bgapi_sm.c.obj)
 .rodata        0x00034fb4        0x4 C:\Users\admin\SimplicityStudio\v4_workspace\soc-thunderboard-sense\protocol\bluetooth_2.6\lib\EFR32MG1P\GCC\bgapi.a(gatt_client.c.obj)
 .rodata.str1.4
                0x00034fb8        0x6 c:/siliconlabs/simplicitystudio/v4/developer/toolchains/gnu_arm/4.9_2015q3/bin/../lib/gcc/arm-none-eabi/4.9.3/../../../../arm-none-eabi/lib/armv7e-m/fpu\libm.a(lib_a-wf_asin.o)
                                  0x9 (size before relaxing)
 *fill*         0x00034fbe        0x2 
 .rodata.str1.4
                0x00034fc0        0x7 c:/siliconlabs/simplicitystudio/v4/developer/toolchains/gnu_arm/4.9_2015q3/bin/../lib/gcc/arm-none-eabi/4.9.3/../../../../arm-none-eabi/lib/armv7e-m/fpu\libm.a(lib_a-wf_log10.o)
                                  0x9 (size before relaxing)
 *fill*         0x00034fc7        0x1 
 .rodata.atanlo
                0x00034fc8       0x10 c:/siliconlabs/simplicitystudio/v4/developer/toolchains/gnu_arm/4.9_2015q3/bin/../lib/gcc/arm-none-eabi/4.9.3/../../../../arm-none-eabi/lib/armv7e-m/fpu\libm.a(lib_a-sf_atan.o)
 .rodata.atanhi
                0x00034fd8       0x10 c:/siliconlabs/simplicitystudio/v4/developer/toolchains/gnu_arm/4.9_2015q3/bin/../lib/gcc/arm-none-eabi/4.9.3/../../../../arm-none-eabi/lib/armv7e-m/fpu\libm.a(lib_a-sf_atan.o)
 .rodata.str1.4
                0x00034fe8        0x2 c:/siliconlabs/simplicitystudio/v4/developer/toolchains/gnu_arm/4.9_2015q3/bin/../lib/gcc/arm-none-eabi/4.9.3/../../../../arm-none-eabi/lib/armv7e-m/fpu\libc.a(lib_a-impure.o)
 *fill*         0x00034fea        0x2 
 .rodata._global_impure_ptr
                0x00034fec        0x4 c:/siliconlabs/simplicitystudio/v4/developer/toolchains/gnu_arm/4.9_2015q3/bin/../lib/gcc/arm-none-eabi/4.9.3/../../../../arm-none-eabi/lib/armv7e-m/fpu\libc.a(lib_a-impure.o)
                0x00034fec                _global_impure_ptr
 .rodata.str1.4
                0x00000000        0x2 c:/siliconlabs/simplicitystudio/v4/developer/toolchains/gnu_arm/4.9_2015q3/bin/../lib/gcc/arm-none-eabi/4.9.3/../../../../arm-none-eabi/lib/armv7e-m/fpu\libc.a(lib_a-puts.o)
 .rodata.zeroes.6911
                0x00034ff0       0x10 c:/siliconlabs/simplicitystudio/v4/developer/toolchains/gnu_arm/4.9_2015q3/bin/../lib/gcc/arm-none-eabi/4.9.3/../../../../arm-none-eabi/lib/armv7e-m/fpu\libc.a(lib_a-svfprintf.o)
 .rodata.blanks.6910
                0x00035000       0x10 c:/siliconlabs/simplicitystudio/v4/developer/toolchains/gnu_arm/4.9_2015q3/bin/../lib/gcc/arm-none-eabi/4.9.3/../../../../arm-none-eabi/lib/armv7e-m/fpu\libc.a(lib_a-svfprintf.o)
 .rodata.str1.4
                0x00035010       0x42 c:/siliconlabs/simplicitystudio/v4/developer/toolchains/gnu_arm/4.9_2015q3/bin/../lib/gcc/arm-none-eabi/4.9.3/../../../../arm-none-eabi/lib/armv7e-m/fpu\libc.a(lib_a-svfprintf.o)
 *fill*         0x00035052        0x2 
 .rodata.zeroes.6926
                0x00035054       0x10 c:/siliconlabs/simplicitystudio/v4/developer/toolchains/gnu_arm/4.9_2015q3/bin/../lib/gcc/arm-none-eabi/4.9.3/../../../../arm-none-eabi/lib/armv7e-m/fpu\libc.a(lib_a-vfprintf.o)
 .rodata.str1.4
                0x00000000       0x42 c:/siliconlabs/simplicitystudio/v4/developer/toolchains/gnu_arm/4.9_2015q3/bin/../lib/gcc/arm-none-eabi/4.9.3/../../../../arm-none-eabi/lib/armv7e-m/fpu\libc.a(lib_a-vfprintf.o)
 .rodata.blanks.6925
                0x00035064       0x10 c:/siliconlabs/simplicitystudio/v4/developer/toolchains/gnu_arm/4.9_2015q3/bin/../lib/gcc/arm-none-eabi/4.9.3/../../../../arm-none-eabi/lib/armv7e-m/fpu\libc.a(lib_a-vfprintf.o)
 .rodata.str1.4
                0x00035074       0x10 c:/siliconlabs/simplicitystudio/v4/developer/toolchains/gnu_arm/4.9_2015q3/bin/../lib/gcc/arm-none-eabi/4.9.3/../../../../arm-none-eabi/lib/armv7e-m/fpu\libc.a(lib_a-dtoa.o)
                                 0x12 (size before relaxing)
 .rodata.str1.4
                0x00035084        0xc c:/siliconlabs/simplicitystudio/v4/developer/toolchains/gnu_arm/4.9_2015q3/bin/../lib/gcc/arm-none-eabi/4.9.3/../../../../arm-none-eabi/lib/armv7e-m/fpu\libc.a(lib_a-locale.o)
                                 0x12 (size before relaxing)
 .rodata.__mprec_tens
                0x00035090       0xc8 c:/siliconlabs/simplicitystudio/v4/developer/toolchains/gnu_arm/4.9_2015q3/bin/../lib/gcc/arm-none-eabi/4.9.3/../../../../arm-none-eabi/lib/armv7e-m/fpu\libc.a(lib_a-mprec.o)
                0x00035090                __mprec_tens
 .rodata.p05.5302
                0x00035158        0xc c:/siliconlabs/simplicitystudio/v4/developer/toolchains/gnu_arm/4.9_2015q3/bin/../lib/gcc/arm-none-eabi/4.9.3/../../../../arm-none-eabi/lib/armv7e-m/fpu\libc.a(lib_a-mprec.o)
 *fill*         0x00035164        0x4 
 .rodata.__mprec_bigtens
                0x00035168       0x28 c:/siliconlabs/simplicitystudio/v4/developer/toolchains/gnu_arm/4.9_2015q3/bin/../lib/gcc/arm-none-eabi/4.9.3/../../../../arm-none-eabi/lib/armv7e-m/fpu\libc.a(lib_a-mprec.o)
                0x00035168                __mprec_bigtens
 *(.eh_frame*)
 .eh_frame      0x00035190        0x0 c:/siliconlabs/simplicitystudio/v4/developer/toolchains/gnu_arm/4.9_2015q3/bin/../lib/gcc/arm-none-eabi/4.9.3/armv7e-m/fpu/crtbegin.o
 .eh_frame      0x00035190        0x0 c:/siliconlabs/simplicitystudio/v4/developer/toolchains/gnu_arm/4.9_2015q3/bin/../lib/gcc/arm-none-eabi/4.9.3/../../../../arm-none-eabi/lib/armv7e-m/fpu\libc.a(lib_a-strcmp.o)
                                 0x70 (size before relaxing)
 .eh_frame      0x00035190        0x4 c:/siliconlabs/simplicitystudio/v4/developer/toolchains/gnu_arm/4.9_2015q3/bin/../lib/gcc/arm-none-eabi/4.9.3/armv7e-m/fpu/crtend.o
                0x00035194                . = ALIGN (0x4)

.glue_7         0x00035194        0x0
 .glue_7        0x00000000        0x0 linker stubs

.glue_7t        0x00035194        0x0
 .glue_7t       0x00000000        0x0 linker stubs

.vfp11_veneer   0x00035194        0x0
 .vfp11_veneer  0x00000000        0x0 linker stubs

.v4_bx          0x00035194        0x0
 .v4_bx         0x00000000        0x0 linker stubs

.iplt           0x00035194        0x0
 .iplt          0x00000000        0x0 c:/siliconlabs/simplicitystudio/v4/developer/toolchains/gnu_arm/4.9_2015q3/bin/../lib/gcc/arm-none-eabi/4.9.3/armv7e-m/fpu/crtbegin.o

.igot.plt       0x00035194        0x0
 .igot.plt      0x00000000        0x0 c:/siliconlabs/simplicitystudio/v4/developer/toolchains/gnu_arm/4.9_2015q3/bin/../lib/gcc/arm-none-eabi/4.9.3/armv7e-m/fpu/crtbegin.o

.text_app_ARM.extab
 *(.ARM.extab* .gnu.linkonce.armextab.*)
                0x00035194                __exidx_start = .

.text_app_ARM.exidx
                0x00035194        0x8
 *(.ARM.exidx* .gnu.linkonce.armexidx.*)
 .ARM.exidx     0x00035194        0x8 c:/siliconlabs/simplicitystudio/v4/developer/toolchains/gnu_arm/4.9_2015q3/bin/../lib/gcc/arm-none-eabi/4.9.3/../../../../arm-none-eabi/lib/armv7e-m/fpu/crt0.o
 .ARM.exidx     0x0003519c        0x0 c:/siliconlabs/simplicitystudio/v4/developer/toolchains/gnu_arm/4.9_2015q3/bin/../lib/gcc/arm-none-eabi/4.9.3/armv7e-m/fpu\libgcc.a(_divdi3.o)
                                  0x8 (size before relaxing)
 .ARM.exidx     0x0003519c        0x0 c:/siliconlabs/simplicitystudio/v4/developer/toolchains/gnu_arm/4.9_2015q3/bin/../lib/gcc/arm-none-eabi/4.9.3/armv7e-m/fpu\libgcc.a(_udivdi3.o)
                                  0x8 (size before relaxing)
                0x0003519c                __exidx_end = .
                0x0003519c                __etext = .

.rel.dyn        0x0003519c        0x0
 .rel.iplt      0x00000000        0x0 c:/siliconlabs/simplicitystudio/v4/developer/toolchains/gnu_arm/4.9_2015q3/bin/../lib/gcc/arm-none-eabi/4.9.3/armv7e-m/fpu/crtbegin.o

.text_app_data  0x20003000      0xa5c load address 0x0003519c
                0x20003000                __data_start__ = .
 *(vtable)
 *(.data*)
 .data.appCfgGattServerCharStatus
                0x20003000       0x40 ./app_ble.o
                0x20003000                appCfgGattServerCharStatus
 .data.appCfgGattServerUserReadRequestSize
                0x20003040        0x4 ./app_ble.o
                0x20003040                appCfgGattServerUserReadRequestSize
 .data.appCfgGattServerUserWriteRequest
                0x20003044       0x38 ./app_ble.o
                0x20003044                appCfgGattServerUserWriteRequest
 .data.appCfgGattServerUserWriteRequestSize
                0x2000307c        0x4 ./app_ble.o
                0x2000307c                appCfgGattServerUserWriteRequestSize
 .data.appCfgGattServerCharStatusSize
                0x20003080        0x4 ./app_ble.o
                0x20003080                appCfgGattServerCharStatusSize
 .data.appCfgGattServerUserReadRequest
                0x20003084       0x80 ./app_ble.o
                0x20003084                appCfgGattServerUserReadRequest
 .data.battCR2032Model
                0x20003104       0x20 ./batt.o
 .data.conConnectionId
                0x20003124        0x1 ./connection.o
 *fill*         0x20003125        0x3 
 .data.bg_gattdb_data_attribute_field_21_data
                0x20003128        0x8 ./gatt_db.o
                0x20003128                bg_gattdb_data_attribute_field_21_data
 .data.bg_gattdb_data_attribute_field_17_data
                0x20003130        0x3 ./gatt_db.o
                0x20003130                bg_gattdb_data_attribute_field_17_data
 *fill*         0x20003133        0x1 
 .data.bg_gattdb_data_attribute_field_15_data
                0x20003134        0x4 ./gatt_db.o
                0x20003134                bg_gattdb_data_attribute_field_15_data
 .data.bg_gattdb_data_attribute_field_19_data
                0x20003138        0x5 ./gatt_db.o
                0x20003138                bg_gattdb_data_attribute_field_19_data
 *fill*         0x2000313d        0x1 
 .data.RADIO_xoTune
                0x2000313e        0x2 ./main.o
                0x2000313e                RADIO_xoTune
 .data.RADIO_soundLevel
                0x20003140        0x4 ./radio_ble.o
                0x20003140                RADIO_soundLevel
 .data.RADIO_tempData
                0x20003144        0x4 ./radio_ble.o
                0x20003144                RADIO_tempData
 .data.RADIO_rhData
                0x20003148        0x4 ./radio_ble.o
                0x20003148                RADIO_rhData
 .data.dcdcInit
                0x2000314c       0x1c ./radio_ble.o
                0x2000314c                dcdcInit
 .data.uiRGBLEDState
                0x20003168        0x4 ./ui.o
                0x20003168                uiRGBLEDState
 .data.lk       0x2000316c       0x34 ./hardware/kit/common/bsp/thunderboard/si1133.o
 .data.uk       0x200031a0        0x8 ./hardware/kit/common/bsp/thunderboard/si1133.o
 .data.auxHfrcoFreq
                0x200031a8        0x4 ./platform/emlib/src/em_cmu.o
 .data.__fdlib_version
                0x200031ac        0x1 c:/siliconlabs/simplicitystudio/v4/developer/toolchains/gnu_arm/4.9_2015q3/bin/../lib/gcc/arm-none-eabi/4.9.3/../../../../arm-none-eabi/lib/armv7e-m/fpu\libm.a(lib_a-s_lib_ver.o)
                0x200031ac                __fdlib_version
 *fill*         0x200031ad        0x3 
 .data.impure_data
                0x200031b0      0x428 c:/siliconlabs/simplicitystudio/v4/developer/toolchains/gnu_arm/4.9_2015q3/bin/../lib/gcc/arm-none-eabi/4.9.3/../../../../arm-none-eabi/lib/armv7e-m/fpu\libc.a(lib_a-impure.o)
 .data._impure_ptr
                0x200035d8        0x4 c:/siliconlabs/simplicitystudio/v4/developer/toolchains/gnu_arm/4.9_2015q3/bin/../lib/gcc/arm-none-eabi/4.9.3/../../../../arm-none-eabi/lib/armv7e-m/fpu\libc.a(lib_a-impure.o)
                0x200035d8                _impure_ptr
 .data.lconv    0x200035dc       0x38 c:/siliconlabs/simplicitystudio/v4/developer/toolchains/gnu_arm/4.9_2015q3/bin/../lib/gcc/arm-none-eabi/4.9.3/../../../../arm-none-eabi/lib/armv7e-m/fpu\libc.a(lib_a-locale.o)
 .data.lc_ctype_charset
                0x20003614       0x20 c:/siliconlabs/simplicitystudio/v4/developer/toolchains/gnu_arm/4.9_2015q3/bin/../lib/gcc/arm-none-eabi/4.9.3/../../../../arm-none-eabi/lib/armv7e-m/fpu\libc.a(lib_a-locale.o)
 .data.__mb_cur_max
                0x20003634        0x4 c:/siliconlabs/simplicitystudio/v4/developer/toolchains/gnu_arm/4.9_2015q3/bin/../lib/gcc/arm-none-eabi/4.9.3/../../../../arm-none-eabi/lib/armv7e-m/fpu\libc.a(lib_a-locale.o)
                0x20003634                __mb_cur_max
 .data.__malloc_av_
                0x20003638      0x408 c:/siliconlabs/simplicitystudio/v4/developer/toolchains/gnu_arm/4.9_2015q3/bin/../lib/gcc/arm-none-eabi/4.9.3/../../../../arm-none-eabi/lib/armv7e-m/fpu\libc.a(lib_a-mallocr.o)
                0x20003638                __malloc_av_
 .data.__malloc_trim_threshold
                0x20003a40        0x4 c:/siliconlabs/simplicitystudio/v4/developer/toolchains/gnu_arm/4.9_2015q3/bin/../lib/gcc/arm-none-eabi/4.9.3/../../../../arm-none-eabi/lib/armv7e-m/fpu\libc.a(lib_a-mallocr.o)
                0x20003a40                __malloc_trim_threshold
 .data.__malloc_sbrk_base
                0x20003a44        0x4 c:/siliconlabs/simplicitystudio/v4/developer/toolchains/gnu_arm/4.9_2015q3/bin/../lib/gcc/arm-none-eabi/4.9.3/../../../../arm-none-eabi/lib/armv7e-m/fpu\libc.a(lib_a-mallocr.o)
                0x20003a44                __malloc_sbrk_base
 .data.__wctomb
                0x20003a48        0x4 c:/siliconlabs/simplicitystudio/v4/developer/toolchains/gnu_arm/4.9_2015q3/bin/../lib/gcc/arm-none-eabi/4.9.3/../../../../arm-none-eabi/lib/armv7e-m/fpu\libc.a(lib_a-wctomb_r.o)
                0x20003a48                __wctomb
                0x20003a4c                . = ALIGN (0x4)
 *(.ram)
                0x20003a4c                . = ALIGN (0x4)
                0x20003a4c                PROVIDE (__preinit_array_start, .)
 *(.preinit_array)
                0x20003a4c                PROVIDE (__preinit_array_end, .)
                0x20003a4c                . = ALIGN (0x4)
                0x20003a4c                PROVIDE (__init_array_start, .)
 *(SORT(.init_array.*))
 .init_array.00000
                0x20003a4c        0x4 c:/siliconlabs/simplicitystudio/v4/developer/toolchains/gnu_arm/4.9_2015q3/bin/../lib/gcc/arm-none-eabi/4.9.3/../../../../arm-none-eabi/lib/armv7e-m/fpu\libc.a(lib_a-__call_atexit.o)
 *(.init_array)
 .init_array    0x20003a50        0x4 c:/siliconlabs/simplicitystudio/v4/developer/toolchains/gnu_arm/4.9_2015q3/bin/../lib/gcc/arm-none-eabi/4.9.3/armv7e-m/fpu/crtbegin.o
                0x20003a54                PROVIDE (__init_array_end, .)
                0x20003a54                . = ALIGN (0x4)
                0x20003a54                PROVIDE (__fini_array_start, .)
 *(SORT(.fini_array.*))
 *(.fini_array)
 .fini_array    0x20003a54        0x4 c:/siliconlabs/simplicitystudio/v4/developer/toolchains/gnu_arm/4.9_2015q3/bin/../lib/gcc/arm-none-eabi/4.9.3/armv7e-m/fpu/crtbegin.o
                0x20003a58                PROVIDE (__fini_array_end, .)
 *(.jcr*)
 .jcr           0x20003a58        0x0 c:/siliconlabs/simplicitystudio/v4/developer/toolchains/gnu_arm/4.9_2015q3/bin/../lib/gcc/arm-none-eabi/4.9.3/armv7e-m/fpu/crtbegin.o
 .jcr           0x20003a58        0x4 c:/siliconlabs/simplicitystudio/v4/developer/toolchains/gnu_arm/4.9_2015q3/bin/../lib/gcc/arm-none-eabi/4.9.3/armv7e-m/fpu/crtend.o
                0x20003a5c                . = ALIGN (0x4)
                0x20003a5c                __data_end__ = .

.bss            0x20003a5c     0x2294 load address 0x00035bf8
                0x20003a5c                . = ALIGN (0x4)
                0x20003a5c                __bss_start__ = .
 *(.bss*)
 .bss           0x20003a5c       0x1c c:/siliconlabs/simplicitystudio/v4/developer/toolchains/gnu_arm/4.9_2015q3/bin/../lib/gcc/arm-none-eabi/4.9.3/armv7e-m/fpu/crtbegin.o
 .bss.digitalInNotification
                0x20003a78        0x1 ./aio.o
 .bss.aioLedStates
                0x20003a79        0x1 ./aio.o
 .bss.connection
                0x20003a7a        0x1 ./app.o
 *fill*         0x20003a7b        0x1 
 .bss.appCfgGattServerAttributeValueSize
                0x20003a7c        0x4 ./app_ble.o
                0x20003a7c                appCfgGattServerAttributeValueSize
 .bss.firmwareRevision
                0x20003a80       0x10 ./app_ble.o
 .bss.appCfgGattServerAttributeValue
                0x20003a90        0x8 ./app_ble.o
                0x20003a90                appCfgGattServerAttributeValue
 .bss.devName   0x20003a98       0x15 ./app_ble.o
 *fill*         0x20003aad        0x3 
 .bss.uniqueId  0x20003ab0        0x4 ./app_ble.o
 .bss.boardSerial
                0x20003ab4       0x10 ./app_ble.o
 .bss.appCfgGattServerConfirmation
                0x20003ac4        0x8 ./app_ble.o
                0x20003ac4                appCfgGattServerConfirmation
 .bss.appCfgGattServerConfirmationSize
                0x20003acc        0x4 ./app_ble.o
                0x20003acc                appCfgGattServerConfirmationSize
 .bss.systemId  0x20003ad0        0x8 ./app_ble.o
 .bss.boardRevision
                0x20003ad8        0x8 ./app_ble.o
 .bss.advData   0x20003ae0       0x1f ./app_ble_adv.o
 *fill*         0x20003aff        0x1 
 .bss.iBeaconData
                0x20003b00       0x1e ./app_ble_adv.o
 .bss.advActive
                0x20003b1e        0x1 ./app_ble_adv.o
 .bss.beaconData
                0x20003b1f        0x1 ./app_ble_adv.o
 .bss.dataConfigured
                0x20003b20        0x1 ./app_ble_adv.o
 .bss.battBatteryLevel
                0x20003b21        0x1 ./batt.o
 .bss.soundLevel.9900
                0x20003b22        0x2 ./es.o
 .bss.bg_gattdb_data_attribute_field_80_data
                0x20003b24        0x6 ./gatt_db.o
                0x20003b24                bg_gattdb_data_attribute_field_80_data
 *fill*         0x20003b2a        0x2 
 .bss.bg_gattdb_data_attribute_field_2_data
                0x20003b2c       0x16 ./gatt_db.o
                0x20003b2c                bg_gattdb_data_attribute_field_2_data
 *fill*         0x20003b42        0x2 
 .bss.bg_gattdb_data_attribute_field_77_data
                0x20003b44        0x6 ./gatt_db.o
                0x20003b44                bg_gattdb_data_attribute_field_77_data
 *fill*         0x20003b4a        0x2 
 .bss.bg_gattdb_data_attribute_field_7_data
                0x20003b4c        0x4 ./gatt_db.o
                0x20003b4c                bg_gattdb_data_attribute_field_7_data
 .bss.cpIndication
                0x20003b50        0x1 ./imus.o
 .bss.accelerationNotification
                0x20003b51        0x1 ./imus.o
 .bss.calibrationInProgress
                0x20003b52        0x1 ./imus.o
 .bss.orientationNotification
                0x20003b53        0x1 ./imus.o
 .bss.micSampleBuffer
                0x20003b54      0x400 ./main.o
 .bss.buttonState.11540
                0x20003f54        0x1 ./radio_ble.o
 *fill*         0x20003f55        0x3 
 .bss.previousAdvLC.11529
                0x20003f58        0x4 ./radio_ble.o
 .bss.RADIO_tvoc
                0x20003f5c        0x2 ./radio_ble.o
                0x20003f5c                RADIO_tvoc
 *fill*         0x20003f5e        0x2 
 .bss.RADIO_ambLight
                0x20003f60        0x4 ./radio_ble.o
                0x20003f60                RADIO_ambLight
 .bss.expectAlsData.11539
                0x20003f64        0x1 ./radio_ble.o
 .bss.RADIO_uvIndex
                0x20003f65        0x1 ./radio_ble.o
                0x20003f65                RADIO_uvIndex
 *fill*         0x20003f66        0x2 
 .bss.RADIO_soundLevelBufferCount
                0x20003f68        0x4 ./radio_ble.o
                0x20003f68                RADIO_soundLevelBufferCount
 .bss.blinkCount
                0x20003f6c        0x4 ./radio_ble.o
 .bss.RADIO_soundLevelAccumulated
                0x20003f70        0x4 ./radio_ble.o
                0x20003f70                RADIO_soundLevelAccumulated
 .bss.advStartedLC.11530
                0x20003f74        0x4 ./radio_ble.o
 .bss.config    0x20003f78       0x38 ./radio_ble.o
 .bss.loopCount.11522
                0x20003fb0        0x4 ./radio_ble.o
 .bss.RADIO_eco2
                0x20003fb4        0x2 ./radio_ble.o
                0x20003fb4                RADIO_eco2
 *fill*         0x20003fb6        0x2 
 .bss.RADIO_pressure
                0x20003fb8        0x4 ./radio_ble.o
                0x20003fb8                RADIO_pressure
 .bss.appState.11523
                0x20003fbc        0x1 ./radio_ble.o
 .bss.bmp280PowerMode
                0x20003fbd        0x1 ./hardware/kit/common/bsp/thunderboard/bap.o
 *fill*         0x20003fbe        0x2 
 .bss.bmp280    0x20003fc0       0x2c ./hardware/kit/common/bsp/thunderboard/bap.o
 .bss.bapDeviceId
                0x20003fec        0x1 ./hardware/kit/common/bsp/thunderboard/bap.o
 .bss.rgbledEnable
                0x20003fed        0x1 ./hardware/kit/common/bsp/thunderboard/board_4160.o
 *fill*         0x20003fee        0x2 
 .bss.pushButton1IRQCallback
                0x20003ff0        0x4 ./hardware/kit/common/bsp/thunderboard/board_4160.o
 .bss.timerEnable
                0x20003ff4        0x1 ./hardware/kit/common/bsp/thunderboard/board_4160.o
 *fill*         0x20003ff5        0x3 
 .bss.sensorInfo
                0x20003ff8        0x4 ./hardware/kit/common/bsp/thunderboard/board_4160.o
 .bss.i2cDevice
                0x20003ffc        0x4 ./hardware/kit/common/bsp/thunderboard/board_4160.o
 .bss.pushButton0IRQCallback
                0x20004000        0x4 ./hardware/kit/common/bsp/thunderboard/board_4160.o
 .bss.isLegacyIntCtrl
                0x20004004        0x1 ./hardware/kit/common/bsp/thunderboard/board_4160.o
 *fill*         0x20004005        0x3 
 .bss.pwmTimer  0x20004008        0x4 ./hardware/kit/common/bsp/thunderboard/board_4160.o
 .bss.picIRQCallback
                0x2000400c        0x4 ./hardware/kit/common/bsp/thunderboard/board_4160.o
 .bss.soundLevel
                0x20004010        0x4 ./hardware/kit/common/bsp/thunderboard/mic.o
 .bss.sampleBufferLen
                0x20004014        0x4 ./hardware/kit/common/bsp/thunderboard/mic.o
 .bss.cmuClkoutSel1
                0x20004018        0x4 ./hardware/kit/common/bsp/thunderboard/mic.o
 .bss.dmaBusy   0x2000401c        0x1 ./hardware/kit/common/bsp/thunderboard/mic.o
 *fill*         0x2000401d        0x3 
 .bss.sampleBuffer
                0x20004020        0x4 ./hardware/kit/common/bsp/thunderboard/mic.o
 .bss.sampleCount
                0x20004024        0x4 ./hardware/kit/common/bsp/thunderboard/mic.o
 .bss.dmadrvChannelId
                0x20004028        0x4 ./hardware/kit/common/bsp/thunderboard/mic.o
 .bss.sampleBufferReady
                0x2000402c        0x1 ./hardware/kit/common/bsp/thunderboard/mic.o
 *fill*         0x2000402d        0x3 
 .bss.p_bmp280  0x20004030        0x4 ./hardware/kit/common/bsp/thunderboard/bosch/BMP280_driver/bmp280.o
 .bss.IMU_interruptCount
                0x20004034        0x4 ./hardware/kit/common/bsp/thunderboard/imu/imu.o
 .bss.IMU_isDataReadyQueryCount
                0x20004038        0x4 ./hardware/kit/common/bsp/thunderboard/imu/imu.o
 .bss.dataReady
                0x2000403c        0x1 ./hardware/kit/common/bsp/thunderboard/imu/imu.o
 *fill*         0x2000403d        0x3 
 .bss.gyroSampleRate
                0x20004040        0x4 ./hardware/kit/common/bsp/thunderboard/imu/imu.o
 .bss.accelSampleRate
                0x20004044        0x4 ./hardware/kit/common/bsp/thunderboard/imu/imu.o
 .bss.IMU_isDataReadyTrueCount
                0x20004048        0x4 ./hardware/kit/common/bsp/thunderboard/imu/imu.o
 .bss.IMU_state
                0x2000404c        0x1 ./hardware/kit/common/bsp/thunderboard/imu/imu.o
                0x2000404c                IMU_state
 *fill*         0x2000404d        0x3 
 .bss.heap_end.6934
                0x20004050        0x4 ./hardware/kit/common/drivers/retargetio.o
 .bss.LFtoCRLF  0x20004054        0x1 ./hardware/kit/common/drivers/retargetserial.o
 *fill*         0x20004055        0x3 
 .bss.rxBuffer  0x20004058        0x8 ./hardware/kit/common/drivers/retargetserial.o
 .bss.initialized
                0x20004060        0x1 ./hardware/kit/common/drivers/retargetserial.o
 *fill*         0x20004061        0x3 
 .bss.rxWriteIndex
                0x20004064        0x4 ./hardware/kit/common/drivers/retargetserial.o
 .bss.rxReadIndex
                0x20004068        0x4 ./hardware/kit/common/drivers/retargetserial.o
 .bss.rxCount   0x2000406c        0x4 ./hardware/kit/common/drivers/retargetserial.o
 .bss.chTable   0x20004070       0xa0 ./platform/emdrv/dmadrv/src/dmadrv.o
 .bss.initialized
                0x20004110        0x1 ./platform/emdrv/dmadrv/src/dmadrv.o
 *fill*         0x20004111        0x3 
 .bss.dmaXfer   0x20004114      0x100 ./platform/emdrv/dmadrv/src/dmadrv.o
 .bss.gpioCallbacks
                0x20004214       0x40 ./platform/emdrv/gpiointerrupt/src/gpiointerrupt.o
 .bss.i2cTransfer
                0x20004254       0x10 ./platform/emlib/src/em_i2c.o
 .bss           0x20004264        0x4 C:\Users\admin\SimplicityStudio\v4_workspace\soc-thunderboard-sense\protocol\bluetooth_2.6\lib\EFR32MG1P\GCC\bgapi.a(bgapi_hardware.c.obj)
 .bss           0x20004268        0x5 C:\Users\admin\SimplicityStudio\v4_workspace\soc-thunderboard-sense\protocol\bluetooth_2.6\lib\EFR32MG1P\GCC\bgapi.a(bgapi_test_lib.c.obj)
 *fill*         0x2000426d        0x1 
 .bss           0x2000426e        0x2 C:\Users\admin\SimplicityStudio\v4_workspace\soc-thunderboard-sense\protocol\bluetooth_2.6\lib\EFR32MG1P\GCC\bgapi.a(bgapi_gap.c.obj)
                0x2000426e                legacy_maxadv_events
 .bss           0x20004270        0x4 C:\Users\admin\SimplicityStudio\v4_workspace\soc-thunderboard-sense\protocol\bluetooth_2.6\lib\EFR32MG1P\GCC\bgapi.a(bgapi_ps.c.obj)
 .bss           0x20004274        0x4 C:\Users\admin\SimplicityStudio\v4_workspace\soc-thunderboard-sense\protocol\bluetooth_2.6\lib\EFR32MG1P\GCC\bgapi.a(bgapi_sm.c.obj)
 .bss           0x20004278        0x4 C:\Users\admin\SimplicityStudio\v4_workspace\soc-thunderboard-sense\protocol\bluetooth_2.6\lib\EFR32MG1P\GCC\bgapi.a(bgapi_system.c.obj)
 .bss.__malloc_max_total_mem
                0x2000427c        0x4 c:/siliconlabs/simplicitystudio/v4/developer/toolchains/gnu_arm/4.9_2015q3/bin/../lib/gcc/arm-none-eabi/4.9.3/../../../../arm-none-eabi/lib/armv7e-m/fpu\libc.a(lib_a-mallocr.o)
                0x2000427c                __malloc_max_total_mem
 .bss.__malloc_max_sbrked_mem
                0x20004280        0x4 c:/siliconlabs/simplicitystudio/v4/developer/toolchains/gnu_arm/4.9_2015q3/bin/../lib/gcc/arm-none-eabi/4.9.3/../../../../arm-none-eabi/lib/armv7e-m/fpu\libc.a(lib_a-mallocr.o)
                0x20004280                __malloc_max_sbrked_mem
 .bss.__malloc_top_pad
                0x20004284        0x4 c:/siliconlabs/simplicitystudio/v4/developer/toolchains/gnu_arm/4.9_2015q3/bin/../lib/gcc/arm-none-eabi/4.9.3/../../../../arm-none-eabi/lib/armv7e-m/fpu\libc.a(lib_a-mallocr.o)
                0x20004284                __malloc_top_pad
 .bss.__malloc_current_mallinfo
                0x20004288       0x28 c:/siliconlabs/simplicitystudio/v4/developer/toolchains/gnu_arm/4.9_2015q3/bin/../lib/gcc/arm-none-eabi/4.9.3/../../../../arm-none-eabi/lib/armv7e-m/fpu\libc.a(lib_a-mallocr.o)
                0x20004288                __malloc_current_mallinfo
 *(COMMON)
 COMMON         0x200042b0       0x24 ./app.o
                0x200042b0                bleDeviceId
                0x200042b4                bleDeviceName
 COMMON         0x200042d4     0x198c ./radio_ble.o
                0x200042d4                sleepConfig
                0x200042d8                bluetooth_stack_heap
 COMMON         0x20005c60        0x2 ./ui.o
                0x20005c60                uiRGBLEDEnable
                0x20005c61                uiButtonState
 *fill*         0x20005c62        0x2 
 COMMON         0x20005c64        0x4 ./hardware/kit/common/bsp/thunderboard/util.o
                0x20005c64                msTickCount
 COMMON         0x20005c68        0xc ./hardware/kit/common/bsp/thunderboard/util_supply.o
                0x20005c68                UTIL_supplyType
                0x20005c6c                UTIL_supplyVoltage
                0x20005c70                UTIL_supplyIR
 COMMON         0x20005c74       0x74 ./hardware/kit/common/bsp/thunderboard/imu/imu.o
                0x20005c74                fuseObj
 COMMON         0x20005ce8        0x4 C:\Users\admin\SimplicityStudio\v4_workspace\soc-thunderboard-sense\protocol\bluetooth_2.6\lib\EFR32MG1P\GCC\bgapi.a(bgapi_test_lib.c.obj)
                0x20005ce8                msg_sender
 COMMON         0x20005cec        0x4 c:/siliconlabs/simplicitystudio/v4/developer/toolchains/gnu_arm/4.9_2015q3/bin/../lib/gcc/arm-none-eabi/4.9.3/../../../../arm-none-eabi/lib/armv7e-m/fpu\libc.a(lib_a-reent.o)
                0x20005cec                errno
                0x20005cf0                . = ALIGN (0x4)
                0x20005cf0                __bss_end__ = .

.heap           0x20005cf0      0xc00
                0x20005cf0                __HeapBase = .
                0x20005cf0                __end__ = .
                0x20005cf0                end = __end__
                0x20005cf0                _end = __end__
 *(.heap*)
 .heap          0x20005cf0      0xc00 ./platform/Device/SiliconLabs/EFR32MG1P/Source/GCC/startup_efr32mg1p.o
                0x200068f0                __HeapLimit = .

.stack_dummy    0x200068f0      0x400
 *(.stack*)
 .stack         0x200068f0      0x400 ./platform/Device/SiliconLabs/EFR32MG1P/Source/GCC/startup_efr32mg1p.o
                0x20007bfc                __StackTop = (ORIGIN (RAM) + 0x4bfc)
                0x200077fc                __StackLimit = (__StackTop - SIZEOF (.stack_dummy))
                0x20007bfc                PROVIDE (__stack, __StackTop)
                0x00000001                ASSERT ((__StackLimit >= __HeapLimit), region RAM overflowed with stack)
                0x00000001                ASSERT ((0x3f000 >= (__etext + SIZEOF (.text_app_data))), FLASH memory overflowed !)
OUTPUT(soc-thunderboard-sense.axf elf32-littlearm)

.ARM.attributes
                0x00000000       0x30
 .ARM.attributes
                0x00000000       0x22 c:/siliconlabs/simplicitystudio/v4/developer/toolchains/gnu_arm/4.9_2015q3/bin/../lib/gcc/arm-none-eabi/4.9.3/armv7e-m/fpu/crti.o
 .ARM.attributes
                0x00000022       0x34 c:/siliconlabs/simplicitystudio/v4/developer/toolchains/gnu_arm/4.9_2015q3/bin/../lib/gcc/arm-none-eabi/4.9.3/armv7e-m/fpu/crtbegin.o
 .ARM.attributes
                0x00000056       0x20 c:/siliconlabs/simplicitystudio/v4/developer/toolchains/gnu_arm/4.9_2015q3/bin/../lib/gcc/arm-none-eabi/4.9.3/../../../../arm-none-eabi/lib/armv7e-m/fpu/crt0.o
 .ARM.attributes
                0x00000076       0x39 ./advertisement-callback.o
 .ARM.attributes
                0x000000af       0x39 ./aio.o
 .ARM.attributes
                0x000000e8       0x39 ./app.o
 .ARM.attributes
                0x00000121       0x39 ./app_ble.o
 .ARM.attributes
                0x0000015a       0x39 ./app_ble_adv.o
 .ARM.attributes
                0x00000193       0x39 ./app_callback.o
 .ARM.attributes
                0x000001cc       0x39 ./application_properties.o
 .ARM.attributes
                0x00000205       0x39 ./batt.o
 .ARM.attributes
                0x0000023e       0x39 ./connection-callback.o
 .ARM.attributes
                0x00000277       0x39 ./connection.o
 .ARM.attributes
                0x000002b0       0x39 ./es.o
 .ARM.attributes
                0x000002e9       0x39 ./gatt_db.o
 .ARM.attributes
                0x00000322       0x39 ./iaq.o
 .ARM.attributes
                0x0000035b       0x39 ./imus.o
 .ARM.attributes
                0x00000394       0x39 ./main.o
 .ARM.attributes
                0x000003cd       0x39 ./power.o
 .ARM.attributes
                0x00000406       0x39 ./radio_ble.o
 .ARM.attributes
                0x0000043f       0x39 ./ui.o
 .ARM.attributes
                0x00000478       0x39 ./hardware/kit/common/bsp/thunderboard/bap.o
 .ARM.attributes
                0x000004b1       0x39 ./hardware/kit/common/bsp/thunderboard/board_4160.o
 .ARM.attributes
                0x000004ea       0x39 ./hardware/kit/common/bsp/thunderboard/ccs811.o
 .ARM.attributes
                0x00000523       0x39 ./hardware/kit/common/bsp/thunderboard/icm20648.o
 .ARM.attributes
                0x0000055c       0x39 ./hardware/kit/common/bsp/thunderboard/mic.o
 .ARM.attributes
                0x00000595       0x39 ./hardware/kit/common/bsp/thunderboard/si1133.o
 .ARM.attributes
                0x000005ce       0x39 ./hardware/kit/common/bsp/thunderboard/si7021.o
 .ARM.attributes
                0x00000607       0x39 ./hardware/kit/common/bsp/thunderboard/util.o
 .ARM.attributes
                0x00000640       0x39 ./hardware/kit/common/bsp/thunderboard/util_supply.o
 .ARM.attributes
                0x00000679       0x39 ./hardware/kit/common/bsp/thunderboard/bosch/BMP280_driver/bmp280.o
 .ARM.attributes
                0x000006b2       0x39 ./hardware/kit/common/bsp/thunderboard/imu/imu.o
 .ARM.attributes
                0x000006eb       0x39 ./hardware/kit/common/bsp/thunderboard/imu/imu_dcm.o
 .ARM.attributes
                0x00000724       0x39 ./hardware/kit/common/bsp/thunderboard/imu/imu_fuse.o
 .ARM.attributes
                0x0000075d       0x39 ./hardware/kit/common/bsp/thunderboard/imu/imu_math.o
 .ARM.attributes
                0x00000796       0x39 ./hardware/kit/common/drivers/i2cspm.o
 .ARM.attributes
                0x000007cf       0x39 ./hardware/kit/common/drivers/retargetio.o
 .ARM.attributes
                0x00000808       0x39 ./hardware/kit/common/drivers/retargetserial.o
 .ARM.attributes
                0x00000841       0x39 ./platform/Device/SiliconLabs/EFR32MG1P/Source/GCC/startup_efr32mg1p.o
 .ARM.attributes
                0x0000087a       0x39 ./platform/emdrv/dmadrv/src/dmadrv.o
 .ARM.attributes
                0x000008b3       0x39 ./platform/emdrv/gpiointerrupt/src/gpiointerrupt.o
 .ARM.attributes
                0x000008ec       0x39 ./platform/emlib/src/em_adc.o
 .ARM.attributes
                0x00000925       0x39 ./platform/emlib/src/em_cmu.o
 .ARM.attributes
                0x0000095e       0x39 ./platform/emlib/src/em_gpio.o
 .ARM.attributes
                0x00000997       0x39 ./platform/emlib/src/em_i2c.o
 .ARM.attributes
                0x000009d0       0x39 ./platform/emlib/src/em_ldma.o
 .ARM.attributes
                0x00000a09       0x39 ./platform/emlib/src/em_prs.o
 .ARM.attributes
                0x00000a42       0x39 ./platform/emlib/src/em_system.o
 .ARM.attributes
                0x00000a7b       0x39 ./platform/emlib/src/em_timer.o
 .ARM.attributes
                0x00000ab4       0x39 ./platform/emlib/src/em_usart.o
 .ARM.attributes
                0x00000aed       0x1c C:\Users\admin\SimplicityStudio\v4_workspace\soc-thunderboard-sense\protocol\bluetooth_2.6\lib\EFR32MG1P\EABI\binstack.o
 .ARM.attributes
                0x00000b09       0x1c C:\Users\admin\SimplicityStudio\v4_workspace\soc-thunderboard-sense\protocol\bluetooth_2.6\lib\EFR32MG1P\EABI\binbootloader.o
 .ARM.attributes
                0x00000b25       0x39 C:\Users\admin\SimplicityStudio\v4_workspace\soc-thunderboard-sense\protocol\bluetooth_2.6\lib\EFR32MG1P\GCC\bgapi.a(gecko_bgapi_hardware.c.obj)
 .ARM.attributes
                0x00000b5e       0x39 C:\Users\admin\SimplicityStudio\v4_workspace\soc-thunderboard-sense\protocol\bluetooth_2.6\lib\EFR32MG1P\GCC\bgapi.a(gecko_bgapi_test.c.obj)
 .ARM.attributes
                0x00000b97       0x39 C:\Users\admin\SimplicityStudio\v4_workspace\soc-thunderboard-sense\protocol\bluetooth_2.6\lib\EFR32MG1P\GCC\bgapi.a(gecko_bgapi_dfu.c.obj)
 .ARM.attributes
                0x00000bd0       0x39 C:\Users\admin\SimplicityStudio\v4_workspace\soc-thunderboard-sense\protocol\bluetooth_2.6\lib\EFR32MG1P\GCC\bgapi.a(gecko_bgapi_gap.c.obj)
 .ARM.attributes
                0x00000c09       0x39 C:\Users\admin\SimplicityStudio\v4_workspace\soc-thunderboard-sense\protocol\bluetooth_2.6\lib\EFR32MG1P\GCC\bgapi.a(gecko_bgapi_gatt.c.obj)
 .ARM.attributes
                0x00000c42       0x39 C:\Users\admin\SimplicityStudio\v4_workspace\soc-thunderboard-sense\protocol\bluetooth_2.6\lib\EFR32MG1P\GCC\bgapi.a(gecko_bgapi_gatt_server.c.obj)
 .ARM.attributes
                0x00000c7b       0x39 C:\Users\admin\SimplicityStudio\v4_workspace\soc-thunderboard-sense\protocol\bluetooth_2.6\lib\EFR32MG1P\GCC\bgapi.a(gecko_bgapi_flash.c.obj)
 .ARM.attributes
                0x00000cb4       0x39 C:\Users\admin\SimplicityStudio\v4_workspace\soc-thunderboard-sense\protocol\bluetooth_2.6\lib\EFR32MG1P\GCC\bgapi.a(gecko_bgapi_sm.c.obj)
 .ARM.attributes
                0x00000ced       0x39 C:\Users\admin\SimplicityStudio\v4_workspace\soc-thunderboard-sense\protocol\bluetooth_2.6\lib\EFR32MG1P\GCC\bgapi.a(gecko_bgapi_system.c.obj)
 .ARM.attributes
                0x00000d26       0x39 C:\Users\admin\SimplicityStudio\v4_workspace\soc-thunderboard-sense\protocol\bluetooth_2.6\lib\EFR32MG1P\GCC\bgapi.a(gecko_bgapi_endpoint.c.obj)
 .ARM.attributes
                0x00000d5f       0x39 C:\Users\admin\SimplicityStudio\v4_workspace\soc-thunderboard-sense\protocol\bluetooth_2.6\lib\EFR32MG1P\GCC\bgapi.a(gecko_bgapi_le_connection.c.obj)
 .ARM.attributes
                0x00000d98       0x39 C:\Users\admin\SimplicityStudio\v4_workspace\soc-thunderboard-sense\protocol\bluetooth_2.6\lib\EFR32MG1P\GCC\bgapi.a(bgapi_hardware.c.obj)
 .ARM.attributes
                0x00000dd1       0x39 C:\Users\admin\SimplicityStudio\v4_workspace\soc-thunderboard-sense\protocol\bluetooth_2.6\lib\EFR32MG1P\GCC\bgapi.a(bgapi_test_lib.c.obj)
 .ARM.attributes
                0x00000e0a       0x39 C:\Users\admin\SimplicityStudio\v4_workspace\soc-thunderboard-sense\protocol\bluetooth_2.6\lib\EFR32MG1P\GCC\bgapi.a(bgapi_dfu.c.obj)
 .ARM.attributes
                0x00000e43       0x39 C:\Users\admin\SimplicityStudio\v4_workspace\soc-thunderboard-sense\protocol\bluetooth_2.6\lib\EFR32MG1P\GCC\bgapi.a(bgapi_gap.c.obj)
 .ARM.attributes
                0x00000e7c       0x39 C:\Users\admin\SimplicityStudio\v4_workspace\soc-thunderboard-sense\protocol\bluetooth_2.6\lib\EFR32MG1P\GCC\bgapi.a(bgapi_gatt_lib.c.obj)
 .ARM.attributes
                0x00000eb5       0x39 C:\Users\admin\SimplicityStudio\v4_workspace\soc-thunderboard-sense\protocol\bluetooth_2.6\lib\EFR32MG1P\GCC\bgapi.a(bgapi_ps.c.obj)
 .ARM.attributes
                0x00000eee       0x39 C:\Users\admin\SimplicityStudio\v4_workspace\soc-thunderboard-sense\protocol\bluetooth_2.6\lib\EFR32MG1P\GCC\bgapi.a(bgapi_sm.c.obj)
 .ARM.attributes
                0x00000f27       0x39 C:\Users\admin\SimplicityStudio\v4_workspace\soc-thunderboard-sense\protocol\bluetooth_2.6\lib\EFR32MG1P\GCC\bgapi.a(bgapi_system.c.obj)
 .ARM.attributes
                0x00000f60       0x39 C:\Users\admin\SimplicityStudio\v4_workspace\soc-thunderboard-sense\protocol\bluetooth_2.6\lib\EFR32MG1P\GCC\bgapi.a(bgapi_endpoint.c.obj)
 .ARM.attributes
                0x00000f99       0x39 C:\Users\admin\SimplicityStudio\v4_workspace\soc-thunderboard-sense\protocol\bluetooth_2.6\lib\EFR32MG1P\GCC\bgapi.a(bgapi_le_connection.c.obj)
 .ARM.attributes
                0x00000fd2       0x39 C:\Users\admin\SimplicityStudio\v4_workspace\soc-thunderboard-sense\protocol\bluetooth_2.6\lib\EFR32MG1P\GCC\bgapi.a(gatt_client.c.obj)
 .ARM.attributes
                0x0000100b       0x39 C:\Users\admin\SimplicityStudio\v4_workspace\soc-thunderboard-sense\protocol\bluetooth_2.6\lib\EFR32MG1P\GCC\bgapi.a(ubt_gatt_client.c.obj)
 .ARM.attributes
                0x00001044       0x39 C:\Users\admin\SimplicityStudio\v4_workspace\soc-thunderboard-sense\protocol\bluetooth_2.6\lib\EFR32MG1P\GCC\bgapi.a(att_client.c.obj)
 .ARM.attributes
                0x0000107d       0x34 c:/siliconlabs/simplicitystudio/v4/developer/toolchains/gnu_arm/4.9_2015q3/bin/../lib/gcc/arm-none-eabi/4.9.3/../../../../arm-none-eabi/lib/armv7e-m/fpu\libm.a(lib_a-wf_asin.o)
 .ARM.attributes
                0x000010b1       0x34 c:/siliconlabs/simplicitystudio/v4/developer/toolchains/gnu_arm/4.9_2015q3/bin/../lib/gcc/arm-none-eabi/4.9.3/../../../../arm-none-eabi/lib/armv7e-m/fpu\libm.a(lib_a-wf_atan2.o)
 .ARM.attributes
                0x000010e5       0x34 c:/siliconlabs/simplicitystudio/v4/developer/toolchains/gnu_arm/4.9_2015q3/bin/../lib/gcc/arm-none-eabi/4.9.3/../../../../arm-none-eabi/lib/armv7e-m/fpu\libm.a(lib_a-wf_log10.o)
 .ARM.attributes
                0x00001119       0x34 c:/siliconlabs/simplicitystudio/v4/developer/toolchains/gnu_arm/4.9_2015q3/bin/../lib/gcc/arm-none-eabi/4.9.3/../../../../arm-none-eabi/lib/armv7e-m/fpu\libm.a(lib_a-ef_asin.o)
 .ARM.attributes
                0x0000114d       0x34 c:/siliconlabs/simplicitystudio/v4/developer/toolchains/gnu_arm/4.9_2015q3/bin/../lib/gcc/arm-none-eabi/4.9.3/../../../../arm-none-eabi/lib/armv7e-m/fpu\libm.a(lib_a-ef_atan2.o)
 .ARM.attributes
                0x00001181       0x34 c:/siliconlabs/simplicitystudio/v4/developer/toolchains/gnu_arm/4.9_2015q3/bin/../lib/gcc/arm-none-eabi/4.9.3/../../../../arm-none-eabi/lib/armv7e-m/fpu\libm.a(lib_a-ef_log10.o)
 .ARM.attributes
                0x000011b5       0x34 c:/siliconlabs/simplicitystudio/v4/developer/toolchains/gnu_arm/4.9_2015q3/bin/../lib/gcc/arm-none-eabi/4.9.3/../../../../arm-none-eabi/lib/armv7e-m/fpu\libm.a(lib_a-ef_sqrt.o)
 .ARM.attributes
                0x000011e9       0x34 c:/siliconlabs/simplicitystudio/v4/developer/toolchains/gnu_arm/4.9_2015q3/bin/../lib/gcc/arm-none-eabi/4.9.3/../../../../arm-none-eabi/lib/armv7e-m/fpu\libm.a(lib_a-s_lib_ver.o)
 .ARM.attributes
                0x0000121d       0x34 c:/siliconlabs/simplicitystudio/v4/developer/toolchains/gnu_arm/4.9_2015q3/bin/../lib/gcc/arm-none-eabi/4.9.3/../../../../arm-none-eabi/lib/armv7e-m/fpu\libm.a(lib_a-s_matherr.o)
 .ARM.attributes
                0x00001251       0x34 c:/siliconlabs/simplicitystudio/v4/developer/toolchains/gnu_arm/4.9_2015q3/bin/../lib/gcc/arm-none-eabi/4.9.3/../../../../arm-none-eabi/lib/armv7e-m/fpu\libm.a(lib_a-s_nan.o)
 .ARM.attributes
                0x00001285       0x34 c:/siliconlabs/simplicitystudio/v4/developer/toolchains/gnu_arm/4.9_2015q3/bin/../lib/gcc/arm-none-eabi/4.9.3/../../../../arm-none-eabi/lib/armv7e-m/fpu\libm.a(lib_a-sf_atan.o)
 .ARM.attributes
                0x000012b9       0x34 c:/siliconlabs/simplicitystudio/v4/developer/toolchains/gnu_arm/4.9_2015q3/bin/../lib/gcc/arm-none-eabi/4.9.3/../../../../arm-none-eabi/lib/armv7e-m/fpu\libm.a(lib_a-sf_fabs.o)
 .ARM.attributes
                0x000012ed       0x34 c:/siliconlabs/simplicitystudio/v4/developer/toolchains/gnu_arm/4.9_2015q3/bin/../lib/gcc/arm-none-eabi/4.9.3/../../../../arm-none-eabi/lib/armv7e-m/fpu\libm.a(lib_a-sf_fpclassify.o)
 .ARM.attributes
                0x00001321       0x34 c:/siliconlabs/simplicitystudio/v4/developer/toolchains/gnu_arm/4.9_2015q3/bin/../lib/gcc/arm-none-eabi/4.9.3/../../../../arm-none-eabi/lib/armv7e-m/fpu\libm.a(lib_a-ef_log.o)
 .ARM.attributes
                0x00001355       0x22 c:/siliconlabs/simplicitystudio/v4/developer/toolchains/gnu_arm/4.9_2015q3/bin/../lib/gcc/arm-none-eabi/4.9.3/armv7e-m/fpu\libgcc.a(_arm_addsubdf3.o)
 .ARM.attributes
                0x00001377       0x22 c:/siliconlabs/simplicitystudio/v4/developer/toolchains/gnu_arm/4.9_2015q3/bin/../lib/gcc/arm-none-eabi/4.9.3/armv7e-m/fpu\libgcc.a(_arm_muldivdf3.o)
 .ARM.attributes
                0x00001399       0x22 c:/siliconlabs/simplicitystudio/v4/developer/toolchains/gnu_arm/4.9_2015q3/bin/../lib/gcc/arm-none-eabi/4.9.3/armv7e-m/fpu\libgcc.a(_arm_cmpdf2.o)
 .ARM.attributes
                0x000013bb       0x22 c:/siliconlabs/simplicitystudio/v4/developer/toolchains/gnu_arm/4.9_2015q3/bin/../lib/gcc/arm-none-eabi/4.9.3/armv7e-m/fpu\libgcc.a(_arm_fixdfsi.o)
 .ARM.attributes
                0x000013dd       0x22 c:/siliconlabs/simplicitystudio/v4/developer/toolchains/gnu_arm/4.9_2015q3/bin/../lib/gcc/arm-none-eabi/4.9.3/armv7e-m/fpu\libgcc.a(_arm_truncdfsf2.o)
 .ARM.attributes
                0x000013ff       0x22 c:/siliconlabs/simplicitystudio/v4/developer/toolchains/gnu_arm/4.9_2015q3/bin/../lib/gcc/arm-none-eabi/4.9.3/armv7e-m/fpu\libgcc.a(_aeabi_ldivmod.o)
 .ARM.attributes
                0x00001421       0x22 c:/siliconlabs/simplicitystudio/v4/developer/toolchains/gnu_arm/4.9_2015q3/bin/../lib/gcc/arm-none-eabi/4.9.3/armv7e-m/fpu\libgcc.a(_aeabi_uldivmod.o)
 .ARM.attributes
                0x00001443       0x34 c:/siliconlabs/simplicitystudio/v4/developer/toolchains/gnu_arm/4.9_2015q3/bin/../lib/gcc/arm-none-eabi/4.9.3/armv7e-m/fpu\libgcc.a(bpabi.o)
 .ARM.attributes
                0x00001477       0x22 c:/siliconlabs/simplicitystudio/v4/developer/toolchains/gnu_arm/4.9_2015q3/bin/../lib/gcc/arm-none-eabi/4.9.3/armv7e-m/fpu\libgcc.a(_dvmd_tls.o)
 .ARM.attributes
                0x00001499       0x34 c:/siliconlabs/simplicitystudio/v4/developer/toolchains/gnu_arm/4.9_2015q3/bin/../lib/gcc/arm-none-eabi/4.9.3/armv7e-m/fpu\libgcc.a(_divdi3.o)
 .ARM.attributes
                0x000014cd       0x34 c:/siliconlabs/simplicitystudio/v4/developer/toolchains/gnu_arm/4.9_2015q3/bin/../lib/gcc/arm-none-eabi/4.9.3/armv7e-m/fpu\libgcc.a(_udivdi3.o)
 .ARM.attributes
                0x00001501       0x34 c:/siliconlabs/simplicitystudio/v4/developer/toolchains/gnu_arm/4.9_2015q3/bin/../lib/gcc/arm-none-eabi/4.9.3/../../../../arm-none-eabi/lib/armv7e-m/fpu\libc.a(lib_a-errno.o)
 .ARM.attributes
                0x00001535       0x34 c:/siliconlabs/simplicitystudio/v4/developer/toolchains/gnu_arm/4.9_2015q3/bin/../lib/gcc/arm-none-eabi/4.9.3/../../../../arm-none-eabi/lib/armv7e-m/fpu\libc.a(lib_a-exit.o)
 .ARM.attributes
                0x00001569       0x34 c:/siliconlabs/simplicitystudio/v4/developer/toolchains/gnu_arm/4.9_2015q3/bin/../lib/gcc/arm-none-eabi/4.9.3/../../../../arm-none-eabi/lib/armv7e-m/fpu\libc.a(lib_a-impure.o)
 .ARM.attributes
                0x0000159d       0x34 c:/siliconlabs/simplicitystudio/v4/developer/toolchains/gnu_arm/4.9_2015q3/bin/../lib/gcc/arm-none-eabi/4.9.3/../../../../arm-none-eabi/lib/armv7e-m/fpu\libc.a(lib_a-init.o)
 .ARM.attributes
                0x000015d1       0x20 c:/siliconlabs/simplicitystudio/v4/developer/toolchains/gnu_arm/4.9_2015q3/bin/../lib/gcc/arm-none-eabi/4.9.3/../../../../arm-none-eabi/lib/armv7e-m/fpu\libc.a(lib_a-memcpy.o)
 .ARM.attributes
                0x000015f1       0x34 c:/siliconlabs/simplicitystudio/v4/developer/toolchains/gnu_arm/4.9_2015q3/bin/../lib/gcc/arm-none-eabi/4.9.3/../../../../arm-none-eabi/lib/armv7e-m/fpu\libc.a(lib_a-memset.o)
 .ARM.attributes
                0x00001625       0x34 c:/siliconlabs/simplicitystudio/v4/developer/toolchains/gnu_arm/4.9_2015q3/bin/../lib/gcc/arm-none-eabi/4.9.3/../../../../arm-none-eabi/lib/armv7e-m/fpu\libc.a(lib_a-printf.o)
 .ARM.attributes
                0x00001659       0x34 c:/siliconlabs/simplicitystudio/v4/developer/toolchains/gnu_arm/4.9_2015q3/bin/../lib/gcc/arm-none-eabi/4.9.3/../../../../arm-none-eabi/lib/armv7e-m/fpu\libc.a(lib_a-puts.o)
 .ARM.attributes
                0x0000168d       0x34 c:/siliconlabs/simplicitystudio/v4/developer/toolchains/gnu_arm/4.9_2015q3/bin/../lib/gcc/arm-none-eabi/4.9.3/../../../../arm-none-eabi/lib/armv7e-m/fpu\libc.a(lib_a-setvbuf.o)
 .ARM.attributes
                0x000016c1       0x34 c:/siliconlabs/simplicitystudio/v4/developer/toolchains/gnu_arm/4.9_2015q3/bin/../lib/gcc/arm-none-eabi/4.9.3/../../../../arm-none-eabi/lib/armv7e-m/fpu\libc.a(lib_a-snprintf.o)
 .ARM.attributes
                0x000016f5       0x34 c:/siliconlabs/simplicitystudio/v4/developer/toolchains/gnu_arm/4.9_2015q3/bin/../lib/gcc/arm-none-eabi/4.9.3/../../../../arm-none-eabi/lib/armv7e-m/fpu\libc.a(lib_a-sprintf.o)
 .ARM.attributes
                0x00001729       0x34 c:/siliconlabs/simplicitystudio/v4/developer/toolchains/gnu_arm/4.9_2015q3/bin/../lib/gcc/arm-none-eabi/4.9.3/../../../../arm-none-eabi/lib/armv7e-m/fpu\libc.a(lib_a-strlen.o)
 .ARM.attributes
                0x0000175d       0x34 c:/siliconlabs/simplicitystudio/v4/developer/toolchains/gnu_arm/4.9_2015q3/bin/../lib/gcc/arm-none-eabi/4.9.3/../../../../arm-none-eabi/lib/armv7e-m/fpu\libc.a(lib_a-strncpy.o)
 .ARM.attributes
                0x00001791       0x34 c:/siliconlabs/simplicitystudio/v4/developer/toolchains/gnu_arm/4.9_2015q3/bin/../lib/gcc/arm-none-eabi/4.9.3/../../../../arm-none-eabi/lib/armv7e-m/fpu\libc.a(lib_a-svfprintf.o)
 .ARM.attributes
                0x000017c5       0x34 c:/siliconlabs/simplicitystudio/v4/developer/toolchains/gnu_arm/4.9_2015q3/bin/../lib/gcc/arm-none-eabi/4.9.3/../../../../arm-none-eabi/lib/armv7e-m/fpu\libc.a(lib_a-vfprintf.o)
 .ARM.attributes
                0x000017f9       0x34 c:/siliconlabs/simplicitystudio/v4/developer/toolchains/gnu_arm/4.9_2015q3/bin/../lib/gcc/arm-none-eabi/4.9.3/../../../../arm-none-eabi/lib/armv7e-m/fpu\libc.a(lib_a-wsetup.o)
 .ARM.attributes
                0x0000182d       0x34 c:/siliconlabs/simplicitystudio/v4/developer/toolchains/gnu_arm/4.9_2015q3/bin/../lib/gcc/arm-none-eabi/4.9.3/../../../../arm-none-eabi/lib/armv7e-m/fpu\libc.a(lib_a-__call_atexit.o)
 .ARM.attributes
                0x00001861       0x34 c:/siliconlabs/simplicitystudio/v4/developer/toolchains/gnu_arm/4.9_2015q3/bin/../lib/gcc/arm-none-eabi/4.9.3/../../../../arm-none-eabi/lib/armv7e-m/fpu\libc.a(lib_a-atexit.o)
 .ARM.attributes
                0x00001895       0x34 c:/siliconlabs/simplicitystudio/v4/developer/toolchains/gnu_arm/4.9_2015q3/bin/../lib/gcc/arm-none-eabi/4.9.3/../../../../arm-none-eabi/lib/armv7e-m/fpu\libc.a(lib_a-dtoa.o)
 .ARM.attributes
                0x000018c9       0x34 c:/siliconlabs/simplicitystudio/v4/developer/toolchains/gnu_arm/4.9_2015q3/bin/../lib/gcc/arm-none-eabi/4.9.3/../../../../arm-none-eabi/lib/armv7e-m/fpu\libc.a(lib_a-fflush.o)
 .ARM.attributes
                0x000018fd       0x34 c:/siliconlabs/simplicitystudio/v4/developer/toolchains/gnu_arm/4.9_2015q3/bin/../lib/gcc/arm-none-eabi/4.9.3/../../../../arm-none-eabi/lib/armv7e-m/fpu\libc.a(lib_a-findfp.o)
 .ARM.attributes
                0x00001931       0x34 c:/siliconlabs/simplicitystudio/v4/developer/toolchains/gnu_arm/4.9_2015q3/bin/../lib/gcc/arm-none-eabi/4.9.3/../../../../arm-none-eabi/lib/armv7e-m/fpu\libc.a(lib_a-fini.o)
 .ARM.attributes
                0x00001965       0x34 c:/siliconlabs/simplicitystudio/v4/developer/toolchains/gnu_arm/4.9_2015q3/bin/../lib/gcc/arm-none-eabi/4.9.3/../../../../arm-none-eabi/lib/armv7e-m/fpu\libc.a(lib_a-freer.o)
 .ARM.attributes
                0x00001999       0x34 c:/siliconlabs/simplicitystudio/v4/developer/toolchains/gnu_arm/4.9_2015q3/bin/../lib/gcc/arm-none-eabi/4.9.3/../../../../arm-none-eabi/lib/armv7e-m/fpu\libc.a(lib_a-fvwrite.o)
 .ARM.attributes
                0x000019cd       0x34 c:/siliconlabs/simplicitystudio/v4/developer/toolchains/gnu_arm/4.9_2015q3/bin/../lib/gcc/arm-none-eabi/4.9.3/../../../../arm-none-eabi/lib/armv7e-m/fpu\libc.a(lib_a-fwalk.o)
 .ARM.attributes
                0x00001a01       0x34 c:/siliconlabs/simplicitystudio/v4/developer/toolchains/gnu_arm/4.9_2015q3/bin/../lib/gcc/arm-none-eabi/4.9.3/../../../../arm-none-eabi/lib/armv7e-m/fpu\libc.a(lib_a-locale.o)
 .ARM.attributes
                0x00001a35       0x34 c:/siliconlabs/simplicitystudio/v4/developer/toolchains/gnu_arm/4.9_2015q3/bin/../lib/gcc/arm-none-eabi/4.9.3/../../../../arm-none-eabi/lib/armv7e-m/fpu\libc.a(lib_a-makebuf.o)
 .ARM.attributes
                0x00001a69       0x34 c:/siliconlabs/simplicitystudio/v4/developer/toolchains/gnu_arm/4.9_2015q3/bin/../lib/gcc/arm-none-eabi/4.9.3/../../../../arm-none-eabi/lib/armv7e-m/fpu\libc.a(lib_a-malloc.o)
 .ARM.attributes
                0x00001a9d       0x34 c:/siliconlabs/simplicitystudio/v4/developer/toolchains/gnu_arm/4.9_2015q3/bin/../lib/gcc/arm-none-eabi/4.9.3/../../../../arm-none-eabi/lib/armv7e-m/fpu\libc.a(lib_a-mallocr.o)
 .ARM.attributes
                0x00001ad1       0x34 c:/siliconlabs/simplicitystudio/v4/developer/toolchains/gnu_arm/4.9_2015q3/bin/../lib/gcc/arm-none-eabi/4.9.3/../../../../arm-none-eabi/lib/armv7e-m/fpu\libc.a(lib_a-memchr.o)
 .ARM.attributes
                0x00001b05       0x34 c:/siliconlabs/simplicitystudio/v4/developer/toolchains/gnu_arm/4.9_2015q3/bin/../lib/gcc/arm-none-eabi/4.9.3/../../../../arm-none-eabi/lib/armv7e-m/fpu\libc.a(lib_a-memmove.o)
 .ARM.attributes
                0x00001b39       0x34 c:/siliconlabs/simplicitystudio/v4/developer/toolchains/gnu_arm/4.9_2015q3/bin/../lib/gcc/arm-none-eabi/4.9.3/../../../../arm-none-eabi/lib/armv7e-m/fpu\libc.a(lib_a-mlock.o)
 .ARM.attributes
                0x00001b6d       0x34 c:/siliconlabs/simplicitystudio/v4/developer/toolchains/gnu_arm/4.9_2015q3/bin/../lib/gcc/arm-none-eabi/4.9.3/../../../../arm-none-eabi/lib/armv7e-m/fpu\libc.a(lib_a-mprec.o)
 .ARM.attributes
                0x00001ba1       0x34 c:/siliconlabs/simplicitystudio/v4/developer/toolchains/gnu_arm/4.9_2015q3/bin/../lib/gcc/arm-none-eabi/4.9.3/../../../../arm-none-eabi/lib/armv7e-m/fpu\libc.a(lib_a-reallocr.o)
 .ARM.attributes
                0x00001bd5       0x34 c:/siliconlabs/simplicitystudio/v4/developer/toolchains/gnu_arm/4.9_2015q3/bin/../lib/gcc/arm-none-eabi/4.9.3/../../../../arm-none-eabi/lib/armv7e-m/fpu\libc.a(lib_a-s_fpclassify.o)
 .ARM.attributes
                0x00001c09       0x34 c:/siliconlabs/simplicitystudio/v4/developer/toolchains/gnu_arm/4.9_2015q3/bin/../lib/gcc/arm-none-eabi/4.9.3/../../../../arm-none-eabi/lib/armv7e-m/fpu\libc.a(lib_a-sbrkr.o)
 .ARM.attributes
                0x00001c3d       0x34 c:/siliconlabs/simplicitystudio/v4/developer/toolchains/gnu_arm/4.9_2015q3/bin/../lib/gcc/arm-none-eabi/4.9.3/../../../../arm-none-eabi/lib/armv7e-m/fpu\libc.a(lib_a-stdio.o)
 .ARM.attributes
                0x00001c71       0x20 c:/siliconlabs/simplicitystudio/v4/developer/toolchains/gnu_arm/4.9_2015q3/bin/../lib/gcc/arm-none-eabi/4.9.3/../../../../arm-none-eabi/lib/armv7e-m/fpu\libc.a(lib_a-strcmp.o)
 .ARM.attributes
                0x00001c91       0x34 c:/siliconlabs/simplicitystudio/v4/developer/toolchains/gnu_arm/4.9_2015q3/bin/../lib/gcc/arm-none-eabi/4.9.3/../../../../arm-none-eabi/lib/armv7e-m/fpu\libc.a(lib_a-svfiprintf.o)
 .ARM.attributes
                0x00001cc5       0x34 c:/siliconlabs/simplicitystudio/v4/developer/toolchains/gnu_arm/4.9_2015q3/bin/../lib/gcc/arm-none-eabi/4.9.3/../../../../arm-none-eabi/lib/armv7e-m/fpu\libc.a(lib_a-vfiprintf.o)
 .ARM.attributes
                0x00001cf9       0x34 c:/siliconlabs/simplicitystudio/v4/developer/toolchains/gnu_arm/4.9_2015q3/bin/../lib/gcc/arm-none-eabi/4.9.3/../../../../arm-none-eabi/lib/armv7e-m/fpu\libc.a(lib_a-writer.o)
 .ARM.attributes
                0x00001d2d       0x34 c:/siliconlabs/simplicitystudio/v4/developer/toolchains/gnu_arm/4.9_2015q3/bin/../lib/gcc/arm-none-eabi/4.9.3/../../../../arm-none-eabi/lib/armv7e-m/fpu\libc.a(lib_a-__atexit.o)
 .ARM.attributes
                0x00001d61       0x34 c:/siliconlabs/simplicitystudio/v4/developer/toolchains/gnu_arm/4.9_2015q3/bin/../lib/gcc/arm-none-eabi/4.9.3/../../../../arm-none-eabi/lib/armv7e-m/fpu\libc.a(lib_a-callocr.o)
 .ARM.attributes
                0x00001d95       0x34 c:/siliconlabs/simplicitystudio/v4/developer/toolchains/gnu_arm/4.9_2015q3/bin/../lib/gcc/arm-none-eabi/4.9.3/../../../../arm-none-eabi/lib/armv7e-m/fpu\libc.a(lib_a-closer.o)
 .ARM.attributes
                0x00001dc9       0x34 c:/siliconlabs/simplicitystudio/v4/developer/toolchains/gnu_arm/4.9_2015q3/bin/../lib/gcc/arm-none-eabi/4.9.3/../../../../arm-none-eabi/lib/armv7e-m/fpu\libc.a(lib_a-fclose.o)
 .ARM.attributes
                0x00001dfd       0x34 c:/siliconlabs/simplicitystudio/v4/developer/toolchains/gnu_arm/4.9_2015q3/bin/../lib/gcc/arm-none-eabi/4.9.3/../../../../arm-none-eabi/lib/armv7e-m/fpu\libc.a(lib_a-fputwc.o)
 .ARM.attributes
                0x00001e31       0x34 c:/siliconlabs/simplicitystudio/v4/developer/toolchains/gnu_arm/4.9_2015q3/bin/../lib/gcc/arm-none-eabi/4.9.3/../../../../arm-none-eabi/lib/armv7e-m/fpu\libc.a(lib_a-fstatr.o)
 .ARM.attributes
                0x00001e65       0x34 c:/siliconlabs/simplicitystudio/v4/developer/toolchains/gnu_arm/4.9_2015q3/bin/../lib/gcc/arm-none-eabi/4.9.3/../../../../arm-none-eabi/lib/armv7e-m/fpu\libc.a(lib_a-isattyr.o)
 .ARM.attributes
                0x00001e99       0x34 c:/siliconlabs/simplicitystudio/v4/developer/toolchains/gnu_arm/4.9_2015q3/bin/../lib/gcc/arm-none-eabi/4.9.3/../../../../arm-none-eabi/lib/armv7e-m/fpu\libc.a(lib_a-lseekr.o)
 .ARM.attributes
                0x00001ecd       0x34 c:/siliconlabs/simplicitystudio/v4/developer/toolchains/gnu_arm/4.9_2015q3/bin/../lib/gcc/arm-none-eabi/4.9.3/../../../../arm-none-eabi/lib/armv7e-m/fpu\libc.a(lib_a-readr.o)
 .ARM.attributes
                0x00001f01       0x34 c:/siliconlabs/simplicitystudio/v4/developer/toolchains/gnu_arm/4.9_2015q3/bin/../lib/gcc/arm-none-eabi/4.9.3/../../../../arm-none-eabi/lib/armv7e-m/fpu\libc.a(lib_a-reent.o)
 .ARM.attributes
                0x00001f35       0x34 c:/siliconlabs/simplicitystudio/v4/developer/toolchains/gnu_arm/4.9_2015q3/bin/../lib/gcc/arm-none-eabi/4.9.3/../../../../arm-none-eabi/lib/armv7e-m/fpu\libc.a(lib_a-wbuf.o)
 .ARM.attributes
                0x00001f69       0x34 c:/siliconlabs/simplicitystudio/v4/developer/toolchains/gnu_arm/4.9_2015q3/bin/../lib/gcc/arm-none-eabi/4.9.3/../../../../arm-none-eabi/lib/armv7e-m/fpu\libc.a(lib_a-wcrtomb.o)
 .ARM.attributes
                0x00001f9d       0x34 c:/siliconlabs/simplicitystudio/v4/developer/toolchains/gnu_arm/4.9_2015q3/bin/../lib/gcc/arm-none-eabi/4.9.3/../../../../arm-none-eabi/lib/armv7e-m/fpu\libc.a(lib_a-wctomb_r.o)
 .ARM.attributes
                0x00001fd1       0x34 c:/siliconlabs/simplicitystudio/v4/developer/toolchains/gnu_arm/4.9_2015q3/bin/../lib/gcc/arm-none-eabi/4.9.3/armv7e-m/fpu/crtend.o
 .ARM.attributes
                0x00002005       0x22 c:/siliconlabs/simplicitystudio/v4/developer/toolchains/gnu_arm/4.9_2015q3/bin/../lib/gcc/arm-none-eabi/4.9.3/armv7e-m/fpu/crtn.o

.comment        0x00000000       0x70
 .comment       0x00000000       0x70 ./advertisement-callback.o
                                 0x71 (size before relaxing)
 .comment       0x00000000       0x71 ./aio.o
 .comment       0x00000000       0x71 ./app.o
 .comment       0x00000000       0x71 ./app_ble.o
 .comment       0x00000000       0x71 ./app_ble_adv.o
 .comment       0x00000000       0x71 ./app_callback.o
 .comment       0x00000000       0x71 ./application_properties.o
 .comment       0x00000000       0x71 ./batt.o
 .comment       0x00000000       0x71 ./connection-callback.o
 .comment       0x00000000       0x71 ./connection.o
 .comment       0x00000000       0x71 ./es.o
 .comment       0x00000000       0x71 ./gatt_db.o
 .comment       0x00000000       0x71 ./iaq.o
 .comment       0x00000000       0x71 ./imus.o
 .comment       0x00000000       0x71 ./main.o
 .comment       0x00000000       0x71 ./power.o
 .comment       0x00000000       0x71 ./radio_ble.o
 .comment       0x00000000       0x71 ./ui.o
 .comment       0x00000000       0x71 ./hardware/kit/common/bsp/thunderboard/bap.o
 .comment       0x00000000       0x71 ./hardware/kit/common/bsp/thunderboard/board_4160.o
 .comment       0x00000000       0x71 ./hardware/kit/common/bsp/thunderboard/ccs811.o
 .comment       0x00000000       0x71 ./hardware/kit/common/bsp/thunderboard/icm20648.o
 .comment       0x00000000       0x71 ./hardware/kit/common/bsp/thunderboard/mic.o
 .comment       0x00000000       0x71 ./hardware/kit/common/bsp/thunderboard/si1133.o
 .comment       0x00000000       0x71 ./hardware/kit/common/bsp/thunderboard/si7021.o
 .comment       0x00000000       0x71 ./hardware/kit/common/bsp/thunderboard/util.o
 .comment       0x00000000       0x71 ./hardware/kit/common/bsp/thunderboard/util_supply.o
 .comment       0x00000000       0x71 ./hardware/kit/common/bsp/thunderboard/bosch/BMP280_driver/bmp280.o
 .comment       0x00000000       0x71 ./hardware/kit/common/bsp/thunderboard/imu/imu.o
 .comment       0x00000000       0x71 ./hardware/kit/common/bsp/thunderboard/imu/imu_dcm.o
 .comment       0x00000000       0x71 ./hardware/kit/common/bsp/thunderboard/imu/imu_fuse.o
 .comment       0x00000000       0x71 ./hardware/kit/common/bsp/thunderboard/imu/imu_math.o
 .comment       0x00000000       0x71 ./hardware/kit/common/drivers/i2cspm.o
 .comment       0x00000000       0x71 ./hardware/kit/common/drivers/retargetio.o
 .comment       0x00000000       0x71 ./hardware/kit/common/drivers/retargetserial.o
 .comment       0x00000000       0x71 ./platform/Device/SiliconLabs/EFR32MG1P/Source/GCC/startup_efr32mg1p.o
 .comment       0x00000000       0x71 ./platform/emdrv/dmadrv/src/dmadrv.o
 .comment       0x00000000       0x71 ./platform/emdrv/gpiointerrupt/src/gpiointerrupt.o
 .comment       0x00000000       0x71 ./platform/emlib/src/em_adc.o
 .comment       0x00000000       0x71 ./platform/emlib/src/em_cmu.o
 .comment       0x00000000       0x71 ./platform/emlib/src/em_gpio.o
 .comment       0x00000000       0x71 ./platform/emlib/src/em_i2c.o
 .comment       0x00000000       0x71 ./platform/emlib/src/em_ldma.o
 .comment       0x00000000       0x71 ./platform/emlib/src/em_prs.o
 .comment       0x00000000       0x71 ./platform/emlib/src/em_system.o
 .comment       0x00000000       0x71 ./platform/emlib/src/em_timer.o
 .comment       0x00000000       0x71 ./platform/emlib/src/em_usart.o
 .comment       0x00000000       0x71 C:\Users\admin\SimplicityStudio\v4_workspace\soc-thunderboard-sense\protocol\bluetooth_2.6\lib\EFR32MG1P\GCC\bgapi.a(gecko_bgapi_hardware.c.obj)
 .comment       0x00000000       0x71 C:\Users\admin\SimplicityStudio\v4_workspace\soc-thunderboard-sense\protocol\bluetooth_2.6\lib\EFR32MG1P\GCC\bgapi.a(gecko_bgapi_test.c.obj)
 .comment       0x00000000       0x71 C:\Users\admin\SimplicityStudio\v4_workspace\soc-thunderboard-sense\protocol\bluetooth_2.6\lib\EFR32MG1P\GCC\bgapi.a(gecko_bgapi_dfu.c.obj)
 .comment       0x00000000       0x71 C:\Users\admin\SimplicityStudio\v4_workspace\soc-thunderboard-sense\protocol\bluetooth_2.6\lib\EFR32MG1P\GCC\bgapi.a(gecko_bgapi_gap.c.obj)
 .comment       0x00000000       0x71 C:\Users\admin\SimplicityStudio\v4_workspace\soc-thunderboard-sense\protocol\bluetooth_2.6\lib\EFR32MG1P\GCC\bgapi.a(gecko_bgapi_gatt.c.obj)
 .comment       0x00000000       0x71 C:\Users\admin\SimplicityStudio\v4_workspace\soc-thunderboard-sense\protocol\bluetooth_2.6\lib\EFR32MG1P\GCC\bgapi.a(gecko_bgapi_gatt_server.c.obj)
 .comment       0x00000000       0x71 C:\Users\admin\SimplicityStudio\v4_workspace\soc-thunderboard-sense\protocol\bluetooth_2.6\lib\EFR32MG1P\GCC\bgapi.a(gecko_bgapi_flash.c.obj)
 .comment       0x00000000       0x71 C:\Users\admin\SimplicityStudio\v4_workspace\soc-thunderboard-sense\protocol\bluetooth_2.6\lib\EFR32MG1P\GCC\bgapi.a(gecko_bgapi_sm.c.obj)
 .comment       0x00000000       0x71 C:\Users\admin\SimplicityStudio\v4_workspace\soc-thunderboard-sense\protocol\bluetooth_2.6\lib\EFR32MG1P\GCC\bgapi.a(gecko_bgapi_system.c.obj)
 .comment       0x00000000       0x71 C:\Users\admin\SimplicityStudio\v4_workspace\soc-thunderboard-sense\protocol\bluetooth_2.6\lib\EFR32MG1P\GCC\bgapi.a(gecko_bgapi_endpoint.c.obj)
 .comment       0x00000000       0x71 C:\Users\admin\SimplicityStudio\v4_workspace\soc-thunderboard-sense\protocol\bluetooth_2.6\lib\EFR32MG1P\GCC\bgapi.a(gecko_bgapi_le_connection.c.obj)
 .comment       0x00000000       0x71 C:\Users\admin\SimplicityStudio\v4_workspace\soc-thunderboard-sense\protocol\bluetooth_2.6\lib\EFR32MG1P\GCC\bgapi.a(bgapi_hardware.c.obj)
 .comment       0x00000000       0x71 C:\Users\admin\SimplicityStudio\v4_workspace\soc-thunderboard-sense\protocol\bluetooth_2.6\lib\EFR32MG1P\GCC\bgapi.a(bgapi_test_lib.c.obj)
 .comment       0x00000000       0x71 C:\Users\admin\SimplicityStudio\v4_workspace\soc-thunderboard-sense\protocol\bluetooth_2.6\lib\EFR32MG1P\GCC\bgapi.a(bgapi_dfu.c.obj)
 .comment       0x00000000       0x71 C:\Users\admin\SimplicityStudio\v4_workspace\soc-thunderboard-sense\protocol\bluetooth_2.6\lib\EFR32MG1P\GCC\bgapi.a(bgapi_gap.c.obj)
 .comment       0x00000000       0x71 C:\Users\admin\SimplicityStudio\v4_workspace\soc-thunderboard-sense\protocol\bluetooth_2.6\lib\EFR32MG1P\GCC\bgapi.a(bgapi_gatt_lib.c.obj)
 .comment       0x00000000       0x71 C:\Users\admin\SimplicityStudio\v4_workspace\soc-thunderboard-sense\protocol\bluetooth_2.6\lib\EFR32MG1P\GCC\bgapi.a(bgapi_ps.c.obj)
 .comment       0x00000000       0x71 C:\Users\admin\SimplicityStudio\v4_workspace\soc-thunderboard-sense\protocol\bluetooth_2.6\lib\EFR32MG1P\GCC\bgapi.a(bgapi_sm.c.obj)
 .comment       0x00000000       0x71 C:\Users\admin\SimplicityStudio\v4_workspace\soc-thunderboard-sense\protocol\bluetooth_2.6\lib\EFR32MG1P\GCC\bgapi.a(bgapi_system.c.obj)
 .comment       0x00000000       0x71 C:\Users\admin\SimplicityStudio\v4_workspace\soc-thunderboard-sense\protocol\bluetooth_2.6\lib\EFR32MG1P\GCC\bgapi.a(bgapi_endpoint.c.obj)
 .comment       0x00000000       0x71 C:\Users\admin\SimplicityStudio\v4_workspace\soc-thunderboard-sense\protocol\bluetooth_2.6\lib\EFR32MG1P\GCC\bgapi.a(bgapi_le_connection.c.obj)
 .comment       0x00000000       0x71 C:\Users\admin\SimplicityStudio\v4_workspace\soc-thunderboard-sense\protocol\bluetooth_2.6\lib\EFR32MG1P\GCC\bgapi.a(gatt_client.c.obj)
 .comment       0x00000000       0x71 C:\Users\admin\SimplicityStudio\v4_workspace\soc-thunderboard-sense\protocol\bluetooth_2.6\lib\EFR32MG1P\GCC\bgapi.a(ubt_gatt_client.c.obj)
 .comment       0x00000000       0x71 C:\Users\admin\SimplicityStudio\v4_workspace\soc-thunderboard-sense\protocol\bluetooth_2.6\lib\EFR32MG1P\GCC\bgapi.a(att_client.c.obj)

.debug_info     0x00000000    0x5cfee
 .debug_info    0x00000000       0xfa ./advertisement-callback.o
 .debug_info    0x000000fa     0x4112 ./aio.o
 .debug_info    0x0000420c     0x41ea ./app.o
 .debug_info    0x000083f6     0x465d ./app_ble.o
 .debug_info    0x0000ca53     0x41f3 ./app_ble_adv.o
 .debug_info    0x00010c46       0xcc ./app_callback.o
 .debug_info    0x00010d12      0x168 ./application_properties.o
 .debug_info    0x00010e7a     0x4deb ./batt.o
 .debug_info    0x00015c65     0x369a ./connection-callback.o
 .debug_info    0x000192ff     0x376b ./connection.o
 .debug_info    0x0001ca6a     0x41b8 ./es.o
 .debug_info    0x00020c22      0xa4f ./gatt_db.o
 .debug_info    0x00021671     0x3f3b ./iaq.o
 .debug_info    0x000255ac     0x4543 ./imus.o
 .debug_info    0x00029aef     0x51fa ./main.o
 .debug_info    0x0002ece9     0x3b37 ./power.o
 .debug_info    0x00032820     0x4b49 ./radio_ble.o
 .debug_info    0x00037369     0x3f6d ./ui.o
 .debug_info    0x0003b2d6      0xb35 ./hardware/kit/common/bsp/thunderboard/bap.o
 .debug_info    0x0003be0b     0x3c3d ./hardware/kit/common/bsp/thunderboard/board_4160.o
 .debug_info    0x0003fa48      0xf6f ./hardware/kit/common/bsp/thunderboard/ccs811.o
 .debug_info    0x000409b7     0x26ca ./hardware/kit/common/bsp/thunderboard/icm20648.o
 .debug_info    0x00043081     0x1933 ./hardware/kit/common/bsp/thunderboard/mic.o
 .debug_info    0x000449b4     0x15bb ./hardware/kit/common/bsp/thunderboard/si1133.o
 .debug_info    0x00045f6f      0x6d0 ./hardware/kit/common/bsp/thunderboard/si7021.o
 .debug_info    0x0004663f      0x9e2 ./hardware/kit/common/bsp/thunderboard/util.o
 .debug_info    0x00047021     0x1af9 ./hardware/kit/common/bsp/thunderboard/util_supply.o
 .debug_info    0x00048b1a     0x1019 ./hardware/kit/common/bsp/thunderboard/bosch/BMP280_driver/bmp280.o
 .debug_info    0x00049b33     0x4307 ./hardware/kit/common/bsp/thunderboard/imu/imu.o
 .debug_info    0x0004de3a      0x53c ./hardware/kit/common/bsp/thunderboard/imu/imu_dcm.o
 .debug_info    0x0004e376      0x85d ./hardware/kit/common/bsp/thunderboard/imu/imu_fuse.o
 .debug_info    0x0004ebd3      0x3af ./hardware/kit/common/bsp/thunderboard/imu/imu_math.o
 .debug_info    0x0004ef82      0xb39 ./hardware/kit/common/drivers/i2cspm.o
 .debug_info    0x0004fabb      0x4fb ./hardware/kit/common/drivers/retargetio.o
 .debug_info    0x0004ffb6     0x16fb ./hardware/kit/common/drivers/retargetserial.o
 .debug_info    0x000516b1      0x1c4 ./platform/Device/SiliconLabs/EFR32MG1P/Source/GCC/startup_efr32mg1p.o
 .debug_info    0x00051875     0x1851 ./platform/emdrv/dmadrv/src/dmadrv.o
 .debug_info    0x000530c6      0x8ae ./platform/emdrv/gpiointerrupt/src/gpiointerrupt.o
 .debug_info    0x00053974     0x1cbe ./platform/emlib/src/em_adc.o
 .debug_info    0x00055632     0x2de1 ./platform/emlib/src/em_cmu.o
 .debug_info    0x00058413      0xe6e ./platform/emlib/src/em_gpio.o
 .debug_info    0x00059281      0xb31 ./platform/emlib/src/em_i2c.o
 .debug_info    0x00059db2     0x1295 ./platform/emlib/src/em_ldma.o
 .debug_info    0x0005b047      0x2c7 ./platform/emlib/src/em_prs.o
 .debug_info    0x0005b30e      0x277 ./platform/emlib/src/em_system.o
 .debug_info    0x0005b585      0x98c ./platform/emlib/src/em_timer.o
 .debug_info    0x0005bf11     0x10dd ./platform/emlib/src/em_usart.o

.debug_abbrev   0x00000000     0x7b5a
 .debug_abbrev  0x00000000       0x8f ./advertisement-callback.o
 .debug_abbrev  0x0000008f      0x31e ./aio.o
 .debug_abbrev  0x000003ad      0x32c ./app.o
 .debug_abbrev  0x000006d9      0x368 ./app_ble.o
 .debug_abbrev  0x00000a41      0x2fe ./app_ble_adv.o
 .debug_abbrev  0x00000d3f       0x8f ./app_callback.o
 .debug_abbrev  0x00000dce       0x97 ./application_properties.o
 .debug_abbrev  0x00000e65      0x338 ./batt.o
 .debug_abbrev  0x0000119d      0x168 ./connection-callback.o
 .debug_abbrev  0x00001305      0x1f0 ./connection.o
 .debug_abbrev  0x000014f5      0x291 ./es.o
 .debug_abbrev  0x00001786       0xd7 ./gatt_db.o
 .debug_abbrev  0x0000185d      0x294 ./iaq.o
 .debug_abbrev  0x00001af1      0x3bd ./imus.o
 .debug_abbrev  0x00001eae      0x377 ./main.o
 .debug_abbrev  0x00002225      0x1f9 ./power.o
 .debug_abbrev  0x0000241e      0x42d ./radio_ble.o
 .debug_abbrev  0x0000284b      0x294 ./ui.o
 .debug_abbrev  0x00002adf      0x2df ./hardware/kit/common/bsp/thunderboard/bap.o
 .debug_abbrev  0x00002dbe      0x50e ./hardware/kit/common/bsp/thunderboard/board_4160.o
 .debug_abbrev  0x000032cc      0x2f7 ./hardware/kit/common/bsp/thunderboard/ccs811.o
 .debug_abbrev  0x000035c3      0x3b4 ./hardware/kit/common/bsp/thunderboard/icm20648.o
 .debug_abbrev  0x00003977      0x3a9 ./hardware/kit/common/bsp/thunderboard/mic.o
 .debug_abbrev  0x00003d20      0x3a1 ./hardware/kit/common/bsp/thunderboard/si1133.o
 .debug_abbrev  0x000040c1      0x1db ./hardware/kit/common/bsp/thunderboard/si7021.o
 .debug_abbrev  0x0000429c      0x282 ./hardware/kit/common/bsp/thunderboard/util.o
 .debug_abbrev  0x0000451e      0x3be ./hardware/kit/common/bsp/thunderboard/util_supply.o
 .debug_abbrev  0x000048dc      0x1b7 ./hardware/kit/common/bsp/thunderboard/bosch/BMP280_driver/bmp280.o
 .debug_abbrev  0x00004a93      0x402 ./hardware/kit/common/bsp/thunderboard/imu/imu.o
 .debug_abbrev  0x00004e95      0x19d ./hardware/kit/common/bsp/thunderboard/imu/imu_dcm.o
 .debug_abbrev  0x00005032      0x2b7 ./hardware/kit/common/bsp/thunderboard/imu/imu_fuse.o
 .debug_abbrev  0x000052e9      0x1a3 ./hardware/kit/common/bsp/thunderboard/imu/imu_math.o
 .debug_abbrev  0x0000548c      0x294 ./hardware/kit/common/drivers/i2cspm.o
 .debug_abbrev  0x00005720      0x1af ./hardware/kit/common/drivers/retargetio.o
 .debug_abbrev  0x000058cf      0x356 ./hardware/kit/common/drivers/retargetserial.o
 .debug_abbrev  0x00005c25      0x106 ./platform/Device/SiliconLabs/EFR32MG1P/Source/GCC/startup_efr32mg1p.o
 .debug_abbrev  0x00005d2b      0x382 ./platform/emdrv/dmadrv/src/dmadrv.o
 .debug_abbrev  0x000060ad      0x2ad ./platform/emdrv/gpiointerrupt/src/gpiointerrupt.o
 .debug_abbrev  0x0000635a      0x308 ./platform/emlib/src/em_adc.o
 .debug_abbrev  0x00006662      0x454 ./platform/emlib/src/em_cmu.o
 .debug_abbrev  0x00006ab6      0x2d8 ./platform/emlib/src/em_gpio.o
 .debug_abbrev  0x00006d8e      0x38a ./platform/emlib/src/em_i2c.o
 .debug_abbrev  0x00007118      0x387 ./platform/emlib/src/em_ldma.o
 .debug_abbrev  0x0000749f       0xe3 ./platform/emlib/src/em_prs.o
 .debug_abbrev  0x00007582      0x118 ./platform/emlib/src/em_system.o
 .debug_abbrev  0x0000769a      0x1bd ./platform/emlib/src/em_timer.o
 .debug_abbrev  0x00007857      0x303 ./platform/emlib/src/em_usart.o

.debug_aranges  0x00000000     0x1268
 .debug_aranges
                0x00000000       0x28 ./advertisement-callback.o
 .debug_aranges
                0x00000028       0x68 ./aio.o
 .debug_aranges
                0x00000090       0x38 ./app.o
 .debug_aranges
                0x000000c8       0x70 ./app_ble.o
 .debug_aranges
                0x00000138       0x68 ./app_ble_adv.o
 .debug_aranges
                0x000001a0       0x20 ./app_callback.o
 .debug_aranges
                0x000001c0       0x18 ./application_properties.o
 .debug_aranges
                0x000001d8       0x40 ./batt.o
 .debug_aranges
                0x00000218       0x28 ./connection-callback.o
 .debug_aranges
                0x00000240       0x38 ./connection.o
 .debug_aranges
                0x00000278       0x70 ./es.o
 .debug_aranges
                0x000002e8       0x18 ./gatt_db.o
 .debug_aranges
                0x00000300       0x60 ./iaq.o
 .debug_aranges
                0x00000360       0x98 ./imus.o
 .debug_aranges
                0x000003f8       0x30 ./main.o
 .debug_aranges
                0x00000428       0x30 ./power.o
 .debug_aranges
                0x00000458       0x50 ./radio_ble.o
 .debug_aranges
                0x000004a8       0x48 ./ui.o
 .debug_aranges
                0x000004f0       0x50 ./hardware/kit/common/bsp/thunderboard/bap.o
 .debug_aranges
                0x00000540      0x180 ./hardware/kit/common/bsp/thunderboard/board_4160.o
 .debug_aranges
                0x000006c0       0x80 ./hardware/kit/common/bsp/thunderboard/ccs811.o
 .debug_aranges
                0x00000740      0x108 ./hardware/kit/common/bsp/thunderboard/icm20648.o
 .debug_aranges
                0x00000848       0x58 ./hardware/kit/common/bsp/thunderboard/mic.o
 .debug_aranges
                0x000008a0       0xd0 ./hardware/kit/common/bsp/thunderboard/si1133.o
 .debug_aranges
                0x00000970       0x48 ./hardware/kit/common/bsp/thunderboard/si7021.o
 .debug_aranges
                0x000009b8       0x38 ./hardware/kit/common/bsp/thunderboard/util.o
 .debug_aranges
                0x000009f0       0x40 ./hardware/kit/common/bsp/thunderboard/util_supply.o
 .debug_aranges
                0x00000a30      0x100 ./hardware/kit/common/bsp/thunderboard/bosch/BMP280_driver/bmp280.o
 .debug_aranges
                0x00000b30       0xa0 ./hardware/kit/common/bsp/thunderboard/imu/imu.o
 .debug_aranges
                0x00000bd0       0x40 ./hardware/kit/common/bsp/thunderboard/imu/imu_dcm.o
 .debug_aranges
                0x00000c10       0x60 ./hardware/kit/common/bsp/thunderboard/imu/imu_fuse.o
 .debug_aranges
                0x00000c70       0x68 ./hardware/kit/common/bsp/thunderboard/imu/imu_math.o
 .debug_aranges
                0x00000cd8       0x28 ./hardware/kit/common/drivers/i2cspm.o
 .debug_aranges
                0x00000d00       0x68 ./hardware/kit/common/drivers/retargetio.o
 .debug_aranges
                0x00000d68       0x40 ./hardware/kit/common/drivers/retargetserial.o
 .debug_aranges
                0x00000da8       0x28 ./platform/Device/SiliconLabs/EFR32MG1P/Source/GCC/startup_efr32mg1p.o
 .debug_aranges
                0x00000dd0       0xa0 ./platform/emdrv/dmadrv/src/dmadrv.o
 .debug_aranges
                0x00000e70       0x40 ./platform/emdrv/gpiointerrupt/src/gpiointerrupt.o
 .debug_aranges
                0x00000eb0       0x70 ./platform/emlib/src/em_adc.o
 .debug_aranges
                0x00000f20      0x118 ./platform/emlib/src/em_cmu.o
 .debug_aranges
                0x00001038       0x48 ./platform/emlib/src/em_gpio.o
 .debug_aranges
                0x00001080       0x58 ./platform/emlib/src/em_i2c.o
 .debug_aranges
                0x000010d8       0x50 ./platform/emlib/src/em_ldma.o
 .debug_aranges
                0x00001128       0x28 ./platform/emlib/src/em_prs.o
 .debug_aranges
                0x00001150       0x28 ./platform/emlib/src/em_system.o
 .debug_aranges
                0x00001178       0x38 ./platform/emlib/src/em_timer.o
 .debug_aranges
                0x000011b0       0xb8 ./platform/emlib/src/em_usart.o

.debug_ranges   0x00000000     0x28c8
 .debug_ranges  0x00000000       0x18 ./advertisement-callback.o
 .debug_ranges  0x00000018       0xd8 ./aio.o
 .debug_ranges  0x000000f0       0x70 ./app.o
 .debug_ranges  0x00000160       0xd8 ./app_ble.o
 .debug_ranges  0x00000238       0xd0 ./app_ble_adv.o
 .debug_ranges  0x00000308       0x10 ./app_callback.o
 .debug_ranges  0x00000318      0x100 ./batt.o
 .debug_ranges  0x00000418       0x18 ./connection-callback.o
 .debug_ranges  0x00000430       0x28 ./connection.o
 .debug_ranges  0x00000458      0x148 ./es.o
 .debug_ranges  0x000005a0       0xb0 ./iaq.o
 .debug_ranges  0x00000650      0x188 ./imus.o
 .debug_ranges  0x000007d8       0xf0 ./main.o
 .debug_ranges  0x000008c8       0x38 ./power.o
 .debug_ranges  0x00000900       0xf0 ./radio_ble.o
 .debug_ranges  0x000009f0       0x98 ./ui.o
 .debug_ranges  0x00000a88       0x58 ./hardware/kit/common/bsp/thunderboard/bap.o
 .debug_ranges  0x00000ae0      0x770 ./hardware/kit/common/bsp/thunderboard/board_4160.o
 .debug_ranges  0x00001250       0x70 ./hardware/kit/common/bsp/thunderboard/ccs811.o
 .debug_ranges  0x000012c0      0x130 ./hardware/kit/common/bsp/thunderboard/icm20648.o
 .debug_ranges  0x000013f0       0xc0 ./hardware/kit/common/bsp/thunderboard/mic.o
 .debug_ranges  0x000014b0      0x1b0 ./hardware/kit/common/bsp/thunderboard/si1133.o
 .debug_ranges  0x00001660       0x38 ./hardware/kit/common/bsp/thunderboard/si7021.o
 .debug_ranges  0x00001698       0x40 ./hardware/kit/common/bsp/thunderboard/util.o
 .debug_ranges  0x000016d8       0xe8 ./hardware/kit/common/bsp/thunderboard/util_supply.o
 .debug_ranges  0x000017c0       0xf0 ./hardware/kit/common/bsp/thunderboard/bosch/BMP280_driver/bmp280.o
 .debug_ranges  0x000018b0       0xb0 ./hardware/kit/common/bsp/thunderboard/imu/imu.o
 .debug_ranges  0x00001960       0x30 ./hardware/kit/common/bsp/thunderboard/imu/imu_dcm.o
 .debug_ranges  0x00001990       0x68 ./hardware/kit/common/bsp/thunderboard/imu/imu_fuse.o
 .debug_ranges  0x000019f8       0x58 ./hardware/kit/common/bsp/thunderboard/imu/imu_math.o
 .debug_ranges  0x00001a50       0x48 ./hardware/kit/common/drivers/i2cspm.o
 .debug_ranges  0x00001a98       0x58 ./hardware/kit/common/drivers/retargetio.o
 .debug_ranges  0x00001af0       0x68 ./hardware/kit/common/drivers/retargetserial.o
 .debug_ranges  0x00001b58       0x18 ./platform/Device/SiliconLabs/EFR32MG1P/Source/GCC/startup_efr32mg1p.o
 .debug_ranges  0x00001b70       0xa8 ./platform/emdrv/dmadrv/src/dmadrv.o
 .debug_ranges  0x00001c18       0xa8 ./platform/emdrv/gpiointerrupt/src/gpiointerrupt.o
 .debug_ranges  0x00001cc0      0x128 ./platform/emlib/src/em_adc.o
 .debug_ranges  0x00001de8      0x5c0 ./platform/emlib/src/em_cmu.o
 .debug_ranges  0x000023a8      0x1a8 ./platform/emlib/src/em_gpio.o
 .debug_ranges  0x00002550      0x100 ./platform/emlib/src/em_i2c.o
 .debug_ranges  0x00002650       0xf0 ./platform/emlib/src/em_ldma.o
 .debug_ranges  0x00002740       0x18 ./platform/emlib/src/em_prs.o
 .debug_ranges  0x00002758       0x18 ./platform/emlib/src/em_system.o
 .debug_ranges  0x00002770       0x60 ./platform/emlib/src/em_timer.o
 .debug_ranges  0x000027d0       0xf8 ./platform/emlib/src/em_usart.o

.debug_line     0x00000000     0xe70f
 .debug_line    0x00000000       0xc8 ./advertisement-callback.o
 .debug_line    0x000000c8      0x4ec ./aio.o
 .debug_line    0x000005b4      0x57a ./app.o
 .debug_line    0x00000b2e      0x573 ./app_ble.o
 .debug_line    0x000010a1      0x5b1 ./app_ble_adv.o
 .debug_line    0x00001652       0xae ./app_callback.o
 .debug_line    0x00001700      0x1a3 ./application_properties.o
 .debug_line    0x000018a3      0x556 ./batt.o
 .debug_line    0x00001df9      0x2e2 ./connection-callback.o
 .debug_line    0x000020db      0x307 ./connection.o
 .debug_line    0x000023e2      0x521 ./es.o
 .debug_line    0x00002903      0x19f ./gatt_db.o
 .debug_line    0x00002aa2      0x438 ./iaq.o
 .debug_line    0x00002eda      0x6ad ./imus.o
 .debug_line    0x00003587      0x778 ./main.o
 .debug_line    0x00003cff      0x369 ./power.o
 .debug_line    0x00004068      0x75f ./radio_ble.o
 .debug_line    0x000047c7      0x495 ./ui.o
 .debug_line    0x00004c5c      0x524 ./hardware/kit/common/bsp/thunderboard/bap.o
 .debug_line    0x00005180      0xe03 ./hardware/kit/common/bsp/thunderboard/board_4160.o
 .debug_line    0x00005f83      0x673 ./hardware/kit/common/bsp/thunderboard/ccs811.o
 .debug_line    0x000065f6      0x950 ./hardware/kit/common/bsp/thunderboard/icm20648.o
 .debug_line    0x00006f46      0x662 ./hardware/kit/common/bsp/thunderboard/mic.o
 .debug_line    0x000075a8      0x71a ./hardware/kit/common/bsp/thunderboard/si1133.o
 .debug_line    0x00007cc2      0x4bc ./hardware/kit/common/bsp/thunderboard/si7021.o
 .debug_line    0x0000817e      0x344 ./hardware/kit/common/bsp/thunderboard/util.o
 .debug_line    0x000084c2      0x539 ./hardware/kit/common/bsp/thunderboard/util_supply.o
 .debug_line    0x000089fb      0x682 ./hardware/kit/common/bsp/thunderboard/bosch/BMP280_driver/bmp280.o
 .debug_line    0x0000907d      0x7aa ./hardware/kit/common/bsp/thunderboard/imu/imu.o
 .debug_line    0x00009827      0x338 ./hardware/kit/common/bsp/thunderboard/imu/imu_dcm.o
 .debug_line    0x00009b5f      0x3c5 ./hardware/kit/common/bsp/thunderboard/imu/imu_fuse.o
 .debug_line    0x00009f24      0x2e4 ./hardware/kit/common/bsp/thunderboard/imu/imu_math.o
 .debug_line    0x0000a208      0x387 ./hardware/kit/common/drivers/i2cspm.o
 .debug_line    0x0000a58f      0x28d ./hardware/kit/common/drivers/retargetio.o
 .debug_line    0x0000a81c      0x4ce ./hardware/kit/common/drivers/retargetserial.o
 .debug_line    0x0000acea      0x184 ./platform/Device/SiliconLabs/EFR32MG1P/Source/GCC/startup_efr32mg1p.o
 .debug_line    0x0000ae6e      0x619 ./platform/emdrv/dmadrv/src/dmadrv.o
 .debug_line    0x0000b487      0x430 ./platform/emdrv/gpiointerrupt/src/gpiointerrupt.o
 .debug_line    0x0000b8b7      0x517 ./platform/emlib/src/em_adc.o
 .debug_line    0x0000bdce      0xce2 ./platform/emlib/src/em_cmu.o
 .debug_line    0x0000cab0      0x447 ./platform/emlib/src/em_gpio.o
 .debug_line    0x0000cef7      0x4e9 ./platform/emlib/src/em_i2c.o
 .debug_line    0x0000d3e0      0x435 ./platform/emlib/src/em_ldma.o
 .debug_line    0x0000d815      0x2be ./platform/emlib/src/em_prs.o
 .debug_line    0x0000dad3      0x2bb ./platform/emlib/src/em_system.o
 .debug_line    0x0000dd8e      0x3f0 ./platform/emlib/src/em_timer.o
 .debug_line    0x0000e17e      0x591 ./platform/emlib/src/em_usart.o

.debug_str      0x00000000    0x10b4b
 .debug_str     0x00000000      0x1ee ./advertisement-callback.o
                                0x22e (size before relaxing)
 .debug_str     0x000001ee     0x595a ./aio.o
                               0x5dde (size before relaxing)
 .debug_str     0x00005b48      0x4f3 ./app.o
                               0x601e (size before relaxing)
 .debug_str     0x0000603b      0x121 ./app_ble.o
                               0x5ff1 (size before relaxing)
 .debug_str     0x0000615c      0x2ae ./app_ble_adv.o
                               0x5f2f (size before relaxing)
 .debug_str     0x0000640a       0x12 ./app_callback.o
                                0x201 (size before relaxing)
 .debug_str     0x0000641c       0xaa ./application_properties.o
                                0x2ba (size before relaxing)
 .debug_str     0x000064c6     0x2041 ./batt.o
                               0x7cb7 (size before relaxing)
 .debug_str     0x00008507       0x68 ./connection-callback.o
                               0x47ba (size before relaxing)
 .debug_str     0x0000856f       0x3f ./connection.o
                               0x4907 (size before relaxing)
 .debug_str     0x000085ae      0x17b ./es.o
                               0x5caa (size before relaxing)
 .debug_str     0x00008729      0xda8 ./gatt_db.o
                                0xfc4 (size before relaxing)
 .debug_str     0x000094d1       0xeb ./iaq.o
                               0x5caf (size before relaxing)
 .debug_str     0x000095bc      0x1f7 ./imus.o
                               0x5ee1 (size before relaxing)
 .debug_str     0x000097b3      0xe4a ./main.o
                               0x5715 (size before relaxing)
 .debug_str     0x0000a5fd       0x53 ./power.o
                               0x5b19 (size before relaxing)
 .debug_str     0x0000a650      0x9fa ./radio_ble.o
                               0x5846 (size before relaxing)
 .debug_str     0x0000b04a       0x84 ./ui.o
                               0x5ca8 (size before relaxing)
 .debug_str     0x0000b0ce      0x3e6 ./hardware/kit/common/bsp/thunderboard/bap.o
                                0x718 (size before relaxing)
 .debug_str     0x0000b4b4      0xe9a ./hardware/kit/common/bsp/thunderboard/board_4160.o
                               0x19de (size before relaxing)
 .debug_str     0x0000c34e      0x126 ./hardware/kit/common/bsp/thunderboard/ccs811.o
                                0x5bd (size before relaxing)
 .debug_str     0x0000c474      0x4a6 ./hardware/kit/common/bsp/thunderboard/icm20648.o
                               0x1003 (size before relaxing)
 .debug_str     0x0000c91a      0x9e1 ./hardware/kit/common/bsp/thunderboard/mic.o
                               0x22b6 (size before relaxing)
 .debug_str     0x0000d2fb      0x27f ./hardware/kit/common/bsp/thunderboard/si1133.o
                                0x739 (size before relaxing)
 .debug_str     0x0000d57a       0xa6 ./hardware/kit/common/bsp/thunderboard/si7021.o
                                0x4b2 (size before relaxing)
 .debug_str     0x0000d620      0x3f2 ./hardware/kit/common/bsp/thunderboard/util.o
                                0xa55 (size before relaxing)
 .debug_str     0x0000da12       0xc1 ./hardware/kit/common/bsp/thunderboard/util_supply.o
                               0x29bc (size before relaxing)
 .debug_str     0x0000dad3      0x3a4 ./hardware/kit/common/bsp/thunderboard/bosch/BMP280_driver/bmp280.o
                                0x7e5 (size before relaxing)
 .debug_str     0x0000de77      0x22b ./hardware/kit/common/bsp/thunderboard/imu/imu.o
                               0x4de9 (size before relaxing)
 .debug_str     0x0000e0a2      0x121 ./hardware/kit/common/bsp/thunderboard/imu/imu_dcm.o
                                0x33a (size before relaxing)
 .debug_str     0x0000e1c3      0x12a ./hardware/kit/common/bsp/thunderboard/imu/imu_fuse.o
                                0x52c (size before relaxing)
 .debug_str     0x0000e2ed       0x4a ./hardware/kit/common/bsp/thunderboard/imu/imu_math.o
                                0x302 (size before relaxing)
 .debug_str     0x0000e337       0x73 ./hardware/kit/common/drivers/i2cspm.o
                                0x9cc (size before relaxing)
 .debug_str     0x0000e3aa      0x17c ./hardware/kit/common/drivers/retargetio.o
                                0x3bb (size before relaxing)
 .debug_str     0x0000e526      0x633 ./hardware/kit/common/drivers/retargetserial.o
                               0x122f (size before relaxing)
 .debug_str     0x0000eb59       0xa8 ./platform/Device/SiliconLabs/EFR32MG1P/Source/GCC/startup_efr32mg1p.o
                                0x2bf (size before relaxing)
 .debug_str     0x0000ec01      0x8f1 ./platform/emdrv/dmadrv/src/dmadrv.o
                               0x1181 (size before relaxing)
 .debug_str     0x0000f4f2       0xbc ./platform/emdrv/gpiointerrupt/src/gpiointerrupt.o
                                0x67d (size before relaxing)
 .debug_str     0x0000f5ae      0x1fe ./platform/emlib/src/em_adc.o
                               0x2abc (size before relaxing)
 .debug_str     0x0000f7ac      0x83a ./platform/emlib/src/em_cmu.o
                               0x147d (size before relaxing)
 .debug_str     0x0000ffe6      0x14e ./platform/emlib/src/em_gpio.o
                                0x845 (size before relaxing)
 .debug_str     0x00010134      0x19f ./platform/emlib/src/em_i2c.o
                                0x820 (size before relaxing)
 .debug_str     0x000102d3       0x44 ./platform/emlib/src/em_ldma.o
                                0xaea (size before relaxing)
 .debug_str     0x00010317       0xb8 ./platform/emlib/src/em_prs.o
                                0x334 (size before relaxing)
 .debug_str     0x000103cf       0xa9 ./platform/emlib/src/em_system.o
                                0x312 (size before relaxing)
 .debug_str     0x00010478      0x20b ./platform/emlib/src/em_timer.o
                                0x9e8 (size before relaxing)
 .debug_str     0x00010683      0x4c8 ./platform/emlib/src/em_usart.o
                                0xebf (size before relaxing)

.debug_frame    0x00000000     0x4bec
 .debug_frame   0x00000000       0x30 ./advertisement-callback.o
 .debug_frame   0x00000030      0x11c ./aio.o
 .debug_frame   0x0000014c      0x16c ./app.o
 .debug_frame   0x000002b8      0x118 ./app_ble.o
 .debug_frame   0x000003d0      0x130 ./app_ble_adv.o
 .debug_frame   0x00000500       0x20 ./app_callback.o
 .debug_frame   0x00000520       0xd0 ./batt.o
 .debug_frame   0x000005f0       0x48 ./connection-callback.o
 .debug_frame   0x00000638       0x50 ./connection.o
 .debug_frame   0x00000688      0x170 ./es.o
 .debug_frame   0x000007f8      0x10c ./iaq.o
 .debug_frame   0x00000904      0x210 ./imus.o
 .debug_frame   0x00000b14       0x68 ./main.o
 .debug_frame   0x00000b7c       0x58 ./power.o
 .debug_frame   0x00000bd4       0xe8 ./radio_ble.o
 .debug_frame   0x00000cbc       0xdc ./ui.o
 .debug_frame   0x00000d98      0x108 ./hardware/kit/common/bsp/thunderboard/bap.o
 .debug_frame   0x00000ea0      0x454 ./hardware/kit/common/bsp/thunderboard/board_4160.o
 .debug_frame   0x000012f4      0x1b8 ./hardware/kit/common/bsp/thunderboard/ccs811.o
 .debug_frame   0x000014ac      0x414 ./hardware/kit/common/bsp/thunderboard/icm20648.o
 .debug_frame   0x000018c0      0x104 ./hardware/kit/common/bsp/thunderboard/mic.o
 .debug_frame   0x000019c4      0x2b8 ./hardware/kit/common/bsp/thunderboard/si1133.o
 .debug_frame   0x00001c7c       0xd0 ./hardware/kit/common/bsp/thunderboard/si7021.o
 .debug_frame   0x00001d4c       0x74 ./hardware/kit/common/bsp/thunderboard/util.o
 .debug_frame   0x00001dc0       0xc0 ./hardware/kit/common/bsp/thunderboard/util_supply.o
 .debug_frame   0x00001e80      0x440 ./hardware/kit/common/bsp/thunderboard/bosch/BMP280_driver/bmp280.o
 .debug_frame   0x000022c0      0x198 ./hardware/kit/common/bsp/thunderboard/imu/imu.o
 .debug_frame   0x00002458       0xb0 ./hardware/kit/common/bsp/thunderboard/imu/imu_dcm.o
 .debug_frame   0x00002508      0x110 ./hardware/kit/common/bsp/thunderboard/imu/imu_fuse.o
 .debug_frame   0x00002618       0xec ./hardware/kit/common/bsp/thunderboard/imu/imu_math.o
 .debug_frame   0x00002704       0x50 ./hardware/kit/common/drivers/i2cspm.o
 .debug_frame   0x00002754       0xc8 ./hardware/kit/common/drivers/retargetio.o
 .debug_frame   0x0000281c       0x94 ./hardware/kit/common/drivers/retargetserial.o
 .debug_frame   0x000028b0       0x38 ./platform/Device/SiliconLabs/EFR32MG1P/Source/GCC/startup_efr32mg1p.o
 .debug_frame   0x000028e8      0x22c ./platform/emdrv/dmadrv/src/dmadrv.o
 .debug_frame   0x00002b14       0x80 ./platform/emdrv/gpiointerrupt/src/gpiointerrupt.o
 .debug_frame   0x00002b94      0x148 ./platform/emlib/src/em_adc.o
 .debug_frame   0x00002cdc      0x314 ./platform/emlib/src/em_cmu.o
 .debug_frame   0x00002ff0       0xa0 ./platform/emlib/src/em_gpio.o
 .debug_frame   0x00003090       0xec ./platform/emlib/src/em_i2c.o
 .debug_frame   0x0000317c       0xdc ./platform/emlib/src/em_ldma.o
 .debug_frame   0x00003258       0x30 ./platform/emlib/src/em_prs.o
 .debug_frame   0x00003288       0x30 ./platform/emlib/src/em_system.o
 .debug_frame   0x000032b8       0xb0 ./platform/emlib/src/em_timer.o
 .debug_frame   0x00003368      0x1dc ./platform/emlib/src/em_usart.o
 .debug_frame   0x00003544       0x50 c:/siliconlabs/simplicitystudio/v4/developer/toolchains/gnu_arm/4.9_2015q3/bin/../lib/gcc/arm-none-eabi/4.9.3/../../../../arm-none-eabi/lib/armv7e-m/fpu\libm.a(lib_a-wf_asin.o)
 .debug_frame   0x00003594       0x20 c:/siliconlabs/simplicitystudio/v4/developer/toolchains/gnu_arm/4.9_2015q3/bin/../lib/gcc/arm-none-eabi/4.9.3/../../../../arm-none-eabi/lib/armv7e-m/fpu\libm.a(lib_a-wf_atan2.o)
 .debug_frame   0x000035b4       0x50 c:/siliconlabs/simplicitystudio/v4/developer/toolchains/gnu_arm/4.9_2015q3/bin/../lib/gcc/arm-none-eabi/4.9.3/../../../../arm-none-eabi/lib/armv7e-m/fpu\libm.a(lib_a-wf_log10.o)
 .debug_frame   0x00003604       0x70 c:/siliconlabs/simplicitystudio/v4/developer/toolchains/gnu_arm/4.9_2015q3/bin/../lib/gcc/arm-none-eabi/4.9.3/../../../../arm-none-eabi/lib/armv7e-m/fpu\libm.a(lib_a-ef_asin.o)
 .debug_frame   0x00003674       0x48 c:/siliconlabs/simplicitystudio/v4/developer/toolchains/gnu_arm/4.9_2015q3/bin/../lib/gcc/arm-none-eabi/4.9.3/../../../../arm-none-eabi/lib/armv7e-m/fpu\libm.a(lib_a-ef_atan2.o)
 .debug_frame   0x000036bc       0x64 c:/siliconlabs/simplicitystudio/v4/developer/toolchains/gnu_arm/4.9_2015q3/bin/../lib/gcc/arm-none-eabi/4.9.3/../../../../arm-none-eabi/lib/armv7e-m/fpu\libm.a(lib_a-ef_log10.o)
 .debug_frame   0x00003720       0x3c c:/siliconlabs/simplicitystudio/v4/developer/toolchains/gnu_arm/4.9_2015q3/bin/../lib/gcc/arm-none-eabi/4.9.3/../../../../arm-none-eabi/lib/armv7e-m/fpu\libm.a(lib_a-ef_sqrt.o)
 .debug_frame   0x0000375c       0x20 c:/siliconlabs/simplicitystudio/v4/developer/toolchains/gnu_arm/4.9_2015q3/bin/../lib/gcc/arm-none-eabi/4.9.3/../../../../arm-none-eabi/lib/armv7e-m/fpu\libm.a(lib_a-s_matherr.o)
 .debug_frame   0x0000377c       0x20 c:/siliconlabs/simplicitystudio/v4/developer/toolchains/gnu_arm/4.9_2015q3/bin/../lib/gcc/arm-none-eabi/4.9.3/../../../../arm-none-eabi/lib/armv7e-m/fpu\libm.a(lib_a-s_nan.o)
 .debug_frame   0x0000379c       0x2c c:/siliconlabs/simplicitystudio/v4/developer/toolchains/gnu_arm/4.9_2015q3/bin/../lib/gcc/arm-none-eabi/4.9.3/../../../../arm-none-eabi/lib/armv7e-m/fpu\libm.a(lib_a-sf_atan.o)
 .debug_frame   0x000037c8       0x20 c:/siliconlabs/simplicitystudio/v4/developer/toolchains/gnu_arm/4.9_2015q3/bin/../lib/gcc/arm-none-eabi/4.9.3/../../../../arm-none-eabi/lib/armv7e-m/fpu\libm.a(lib_a-sf_fabs.o)
 .debug_frame   0x000037e8       0x20 c:/siliconlabs/simplicitystudio/v4/developer/toolchains/gnu_arm/4.9_2015q3/bin/../lib/gcc/arm-none-eabi/4.9.3/../../../../arm-none-eabi/lib/armv7e-m/fpu\libm.a(lib_a-sf_fpclassify.o)
 .debug_frame   0x00003808       0x4c c:/siliconlabs/simplicitystudio/v4/developer/toolchains/gnu_arm/4.9_2015q3/bin/../lib/gcc/arm-none-eabi/4.9.3/../../../../arm-none-eabi/lib/armv7e-m/fpu\libm.a(lib_a-ef_log.o)
 .debug_frame   0x00003854       0x28 c:/siliconlabs/simplicitystudio/v4/developer/toolchains/gnu_arm/4.9_2015q3/bin/../lib/gcc/arm-none-eabi/4.9.3/armv7e-m/fpu\libgcc.a(_aeabi_ldivmod.o)
 .debug_frame   0x0000387c       0x28 c:/siliconlabs/simplicitystudio/v4/developer/toolchains/gnu_arm/4.9_2015q3/bin/../lib/gcc/arm-none-eabi/4.9.3/armv7e-m/fpu\libgcc.a(_aeabi_uldivmod.o)
 .debug_frame   0x000038a4       0x50 c:/siliconlabs/simplicitystudio/v4/developer/toolchains/gnu_arm/4.9_2015q3/bin/../lib/gcc/arm-none-eabi/4.9.3/armv7e-m/fpu\libgcc.a(bpabi.o)
 .debug_frame   0x000038f4       0x34 c:/siliconlabs/simplicitystudio/v4/developer/toolchains/gnu_arm/4.9_2015q3/bin/../lib/gcc/arm-none-eabi/4.9.3/armv7e-m/fpu\libgcc.a(_divdi3.o)
 .debug_frame   0x00003928       0x30 c:/siliconlabs/simplicitystudio/v4/developer/toolchains/gnu_arm/4.9_2015q3/bin/../lib/gcc/arm-none-eabi/4.9.3/armv7e-m/fpu\libgcc.a(_udivdi3.o)
 .debug_frame   0x00003958       0x20 c:/siliconlabs/simplicitystudio/v4/developer/toolchains/gnu_arm/4.9_2015q3/bin/../lib/gcc/arm-none-eabi/4.9.3/../../../../arm-none-eabi/lib/armv7e-m/fpu\libc.a(lib_a-errno.o)
 .debug_frame   0x00003978       0x28 c:/siliconlabs/simplicitystudio/v4/developer/toolchains/gnu_arm/4.9_2015q3/bin/../lib/gcc/arm-none-eabi/4.9.3/../../../../arm-none-eabi/lib/armv7e-m/fpu\libc.a(lib_a-exit.o)
 .debug_frame   0x000039a0       0x2c c:/siliconlabs/simplicitystudio/v4/developer/toolchains/gnu_arm/4.9_2015q3/bin/../lib/gcc/arm-none-eabi/4.9.3/../../../../arm-none-eabi/lib/armv7e-m/fpu\libc.a(lib_a-init.o)
 .debug_frame   0x000039cc       0x34 c:/siliconlabs/simplicitystudio/v4/developer/toolchains/gnu_arm/4.9_2015q3/bin/../lib/gcc/arm-none-eabi/4.9.3/../../../../arm-none-eabi/lib/armv7e-m/fpu\libc.a(lib_a-memset.o)
 .debug_frame   0x00003a00       0x74 c:/siliconlabs/simplicitystudio/v4/developer/toolchains/gnu_arm/4.9_2015q3/bin/../lib/gcc/arm-none-eabi/4.9.3/../../../../arm-none-eabi/lib/armv7e-m/fpu\libc.a(lib_a-printf.o)
 .debug_frame   0x00003a74       0x48 c:/siliconlabs/simplicitystudio/v4/developer/toolchains/gnu_arm/4.9_2015q3/bin/../lib/gcc/arm-none-eabi/4.9.3/../../../../arm-none-eabi/lib/armv7e-m/fpu\libc.a(lib_a-puts.o)
 .debug_frame   0x00003abc       0x30 c:/siliconlabs/simplicitystudio/v4/developer/toolchains/gnu_arm/4.9_2015q3/bin/../lib/gcc/arm-none-eabi/4.9.3/../../../../arm-none-eabi/lib/armv7e-m/fpu\libc.a(lib_a-setvbuf.o)
 .debug_frame   0x00003aec       0xd0 c:/siliconlabs/simplicitystudio/v4/developer/toolchains/gnu_arm/4.9_2015q3/bin/../lib/gcc/arm-none-eabi/4.9.3/../../../../arm-none-eabi/lib/armv7e-m/fpu\libc.a(lib_a-snprintf.o)
 .debug_frame   0x00003bbc       0x84 c:/siliconlabs/simplicitystudio/v4/developer/toolchains/gnu_arm/4.9_2015q3/bin/../lib/gcc/arm-none-eabi/4.9.3/../../../../arm-none-eabi/lib/armv7e-m/fpu\libc.a(lib_a-sprintf.o)
 .debug_frame   0x00003c40       0x20 c:/siliconlabs/simplicitystudio/v4/developer/toolchains/gnu_arm/4.9_2015q3/bin/../lib/gcc/arm-none-eabi/4.9.3/../../../../arm-none-eabi/lib/armv7e-m/fpu\libc.a(lib_a-strlen.o)
 .debug_frame   0x00003c60       0x34 c:/siliconlabs/simplicitystudio/v4/developer/toolchains/gnu_arm/4.9_2015q3/bin/../lib/gcc/arm-none-eabi/4.9.3/../../../../arm-none-eabi/lib/armv7e-m/fpu\libc.a(lib_a-strncpy.o)
 .debug_frame   0x00003c94       0x40 c:/siliconlabs/simplicitystudio/v4/developer/toolchains/gnu_arm/4.9_2015q3/bin/../lib/gcc/arm-none-eabi/4.9.3/../../../../arm-none-eabi/lib/armv7e-m/fpu\libc.a(lib_a-svfprintf.o)
 .debug_frame   0x00003cd4       0x90 c:/siliconlabs/simplicitystudio/v4/developer/toolchains/gnu_arm/4.9_2015q3/bin/../lib/gcc/arm-none-eabi/4.9.3/../../../../arm-none-eabi/lib/armv7e-m/fpu\libc.a(lib_a-vfprintf.o)
 .debug_frame   0x00003d64       0x2c c:/siliconlabs/simplicitystudio/v4/developer/toolchains/gnu_arm/4.9_2015q3/bin/../lib/gcc/arm-none-eabi/4.9.3/../../../../arm-none-eabi/lib/armv7e-m/fpu\libc.a(lib_a-wsetup.o)
 .debug_frame   0x00003d90       0x50 c:/siliconlabs/simplicitystudio/v4/developer/toolchains/gnu_arm/4.9_2015q3/bin/../lib/gcc/arm-none-eabi/4.9.3/../../../../arm-none-eabi/lib/armv7e-m/fpu\libc.a(lib_a-__call_atexit.o)
 .debug_frame   0x00003de0       0x20 c:/siliconlabs/simplicitystudio/v4/developer/toolchains/gnu_arm/4.9_2015q3/bin/../lib/gcc/arm-none-eabi/4.9.3/../../../../arm-none-eabi/lib/armv7e-m/fpu\libc.a(lib_a-atexit.o)
 .debug_frame   0x00003e00       0x88 c:/siliconlabs/simplicitystudio/v4/developer/toolchains/gnu_arm/4.9_2015q3/bin/../lib/gcc/arm-none-eabi/4.9.3/../../../../arm-none-eabi/lib/armv7e-m/fpu\libc.a(lib_a-dtoa.o)
 .debug_frame   0x00003e88       0x6c c:/siliconlabs/simplicitystudio/v4/developer/toolchains/gnu_arm/4.9_2015q3/bin/../lib/gcc/arm-none-eabi/4.9.3/../../../../arm-none-eabi/lib/armv7e-m/fpu\libc.a(lib_a-fflush.o)
 .debug_frame   0x00003ef4      0x124 c:/siliconlabs/simplicitystudio/v4/developer/toolchains/gnu_arm/4.9_2015q3/bin/../lib/gcc/arm-none-eabi/4.9.3/../../../../arm-none-eabi/lib/armv7e-m/fpu\libc.a(lib_a-findfp.o)
 .debug_frame   0x00004018       0x34 c:/siliconlabs/simplicitystudio/v4/developer/toolchains/gnu_arm/4.9_2015q3/bin/../lib/gcc/arm-none-eabi/4.9.3/../../../../arm-none-eabi/lib/armv7e-m/fpu\libc.a(lib_a-fini.o)
 .debug_frame   0x0000404c       0x74 c:/siliconlabs/simplicitystudio/v4/developer/toolchains/gnu_arm/4.9_2015q3/bin/../lib/gcc/arm-none-eabi/4.9.3/../../../../arm-none-eabi/lib/armv7e-m/fpu\libc.a(lib_a-freer.o)
 .debug_frame   0x000040c0       0x68 c:/siliconlabs/simplicitystudio/v4/developer/toolchains/gnu_arm/4.9_2015q3/bin/../lib/gcc/arm-none-eabi/4.9.3/../../../../arm-none-eabi/lib/armv7e-m/fpu\libc.a(lib_a-fvwrite.o)
 .debug_frame   0x00004128       0x54 c:/siliconlabs/simplicitystudio/v4/developer/toolchains/gnu_arm/4.9_2015q3/bin/../lib/gcc/arm-none-eabi/4.9.3/../../../../arm-none-eabi/lib/armv7e-m/fpu\libc.a(lib_a-fwalk.o)
 .debug_frame   0x0000417c       0x9c c:/siliconlabs/simplicitystudio/v4/developer/toolchains/gnu_arm/4.9_2015q3/bin/../lib/gcc/arm-none-eabi/4.9.3/../../../../arm-none-eabi/lib/armv7e-m/fpu\libc.a(lib_a-locale.o)
 .debug_frame   0x00004218       0x48 c:/siliconlabs/simplicitystudio/v4/developer/toolchains/gnu_arm/4.9_2015q3/bin/../lib/gcc/arm-none-eabi/4.9.3/../../../../arm-none-eabi/lib/armv7e-m/fpu\libc.a(lib_a-makebuf.o)
 .debug_frame   0x00004260       0x30 c:/siliconlabs/simplicitystudio/v4/developer/toolchains/gnu_arm/4.9_2015q3/bin/../lib/gcc/arm-none-eabi/4.9.3/../../../../arm-none-eabi/lib/armv7e-m/fpu\libc.a(lib_a-malloc.o)
 .debug_frame   0x00004290       0x58 c:/siliconlabs/simplicitystudio/v4/developer/toolchains/gnu_arm/4.9_2015q3/bin/../lib/gcc/arm-none-eabi/4.9.3/../../../../arm-none-eabi/lib/armv7e-m/fpu\libc.a(lib_a-mallocr.o)
 .debug_frame   0x000042e8       0x3c c:/siliconlabs/simplicitystudio/v4/developer/toolchains/gnu_arm/4.9_2015q3/bin/../lib/gcc/arm-none-eabi/4.9.3/../../../../arm-none-eabi/lib/armv7e-m/fpu\libc.a(lib_a-memchr.o)
 .debug_frame   0x00004324       0x30 c:/siliconlabs/simplicitystudio/v4/developer/toolchains/gnu_arm/4.9_2015q3/bin/../lib/gcc/arm-none-eabi/4.9.3/../../../../arm-none-eabi/lib/armv7e-m/fpu\libc.a(lib_a-memmove.o)
 .debug_frame   0x00004354       0x30 c:/siliconlabs/simplicitystudio/v4/developer/toolchains/gnu_arm/4.9_2015q3/bin/../lib/gcc/arm-none-eabi/4.9.3/../../../../arm-none-eabi/lib/armv7e-m/fpu\libc.a(lib_a-mlock.o)
 .debug_frame   0x00004384      0x268 c:/siliconlabs/simplicitystudio/v4/developer/toolchains/gnu_arm/4.9_2015q3/bin/../lib/gcc/arm-none-eabi/4.9.3/../../../../arm-none-eabi/lib/armv7e-m/fpu\libc.a(lib_a-mprec.o)
 .debug_frame   0x000045ec       0x60 c:/siliconlabs/simplicitystudio/v4/developer/toolchains/gnu_arm/4.9_2015q3/bin/../lib/gcc/arm-none-eabi/4.9.3/../../../../arm-none-eabi/lib/armv7e-m/fpu\libc.a(lib_a-reallocr.o)
 .debug_frame   0x0000464c       0x34 c:/siliconlabs/simplicitystudio/v4/developer/toolchains/gnu_arm/4.9_2015q3/bin/../lib/gcc/arm-none-eabi/4.9.3/../../../../arm-none-eabi/lib/armv7e-m/fpu\libc.a(lib_a-s_fpclassify.o)
 .debug_frame   0x00004680       0x2c c:/siliconlabs/simplicitystudio/v4/developer/toolchains/gnu_arm/4.9_2015q3/bin/../lib/gcc/arm-none-eabi/4.9.3/../../../../arm-none-eabi/lib/armv7e-m/fpu\libc.a(lib_a-sbrkr.o)
 .debug_frame   0x000046ac       0x88 c:/siliconlabs/simplicitystudio/v4/developer/toolchains/gnu_arm/4.9_2015q3/bin/../lib/gcc/arm-none-eabi/4.9.3/../../../../arm-none-eabi/lib/armv7e-m/fpu\libc.a(lib_a-stdio.o)
 .debug_frame   0x00004734       0x78 c:/siliconlabs/simplicitystudio/v4/developer/toolchains/gnu_arm/4.9_2015q3/bin/../lib/gcc/arm-none-eabi/4.9.3/../../../../arm-none-eabi/lib/armv7e-m/fpu\libc.a(lib_a-svfiprintf.o)
 .debug_frame   0x000047ac       0xd8 c:/siliconlabs/simplicitystudio/v4/developer/toolchains/gnu_arm/4.9_2015q3/bin/../lib/gcc/arm-none-eabi/4.9.3/../../../../arm-none-eabi/lib/armv7e-m/fpu\libc.a(lib_a-vfiprintf.o)
 .debug_frame   0x00004884       0x2c c:/siliconlabs/simplicitystudio/v4/developer/toolchains/gnu_arm/4.9_2015q3/bin/../lib/gcc/arm-none-eabi/4.9.3/../../../../arm-none-eabi/lib/armv7e-m/fpu\libc.a(lib_a-writer.o)
 .debug_frame   0x000048b0       0x34 c:/siliconlabs/simplicitystudio/v4/developer/toolchains/gnu_arm/4.9_2015q3/bin/../lib/gcc/arm-none-eabi/4.9.3/../../../../arm-none-eabi/lib/armv7e-m/fpu\libc.a(lib_a-__atexit.o)
 .debug_frame   0x000048e4       0x28 c:/siliconlabs/simplicitystudio/v4/developer/toolchains/gnu_arm/4.9_2015q3/bin/../lib/gcc/arm-none-eabi/4.9.3/../../../../arm-none-eabi/lib/armv7e-m/fpu\libc.a(lib_a-callocr.o)
 .debug_frame   0x0000490c       0x2c c:/siliconlabs/simplicitystudio/v4/developer/toolchains/gnu_arm/4.9_2015q3/bin/../lib/gcc/arm-none-eabi/4.9.3/../../../../arm-none-eabi/lib/armv7e-m/fpu\libc.a(lib_a-closer.o)
 .debug_frame   0x00004938       0x44 c:/siliconlabs/simplicitystudio/v4/developer/toolchains/gnu_arm/4.9_2015q3/bin/../lib/gcc/arm-none-eabi/4.9.3/../../../../arm-none-eabi/lib/armv7e-m/fpu\libc.a(lib_a-fclose.o)
 .debug_frame   0x0000497c       0x84 c:/siliconlabs/simplicitystudio/v4/developer/toolchains/gnu_arm/4.9_2015q3/bin/../lib/gcc/arm-none-eabi/4.9.3/../../../../arm-none-eabi/lib/armv7e-m/fpu\libc.a(lib_a-fputwc.o)
 .debug_frame   0x00004a00       0x2c c:/siliconlabs/simplicitystudio/v4/developer/toolchains/gnu_arm/4.9_2015q3/bin/../lib/gcc/arm-none-eabi/4.9.3/../../../../arm-none-eabi/lib/armv7e-m/fpu\libc.a(lib_a-fstatr.o)
 .debug_frame   0x00004a2c       0x2c c:/siliconlabs/simplicitystudio/v4/developer/toolchains/gnu_arm/4.9_2015q3/bin/../lib/gcc/arm-none-eabi/4.9.3/../../../../arm-none-eabi/lib/armv7e-m/fpu\libc.a(lib_a-isattyr.o)
 .debug_frame   0x00004a58       0x2c c:/siliconlabs/simplicitystudio/v4/developer/toolchains/gnu_arm/4.9_2015q3/bin/../lib/gcc/arm-none-eabi/4.9.3/../../../../arm-none-eabi/lib/armv7e-m/fpu\libc.a(lib_a-lseekr.o)
 .debug_frame   0x00004a84       0x2c c:/siliconlabs/simplicitystudio/v4/developer/toolchains/gnu_arm/4.9_2015q3/bin/../lib/gcc/arm-none-eabi/4.9.3/../../../../arm-none-eabi/lib/armv7e-m/fpu\libc.a(lib_a-readr.o)
 .debug_frame   0x00004ab0       0x58 c:/siliconlabs/simplicitystudio/v4/developer/toolchains/gnu_arm/4.9_2015q3/bin/../lib/gcc/arm-none-eabi/4.9.3/../../../../arm-none-eabi/lib/armv7e-m/fpu\libc.a(lib_a-reent.o)
 .debug_frame   0x00004b08       0x3c c:/siliconlabs/simplicitystudio/v4/developer/toolchains/gnu_arm/4.9_2015q3/bin/../lib/gcc/arm-none-eabi/4.9.3/../../../../arm-none-eabi/lib/armv7e-m/fpu\libc.a(lib_a-wbuf.o)
 .debug_frame   0x00004b44       0x60 c:/siliconlabs/simplicitystudio/v4/developer/toolchains/gnu_arm/4.9_2015q3/bin/../lib/gcc/arm-none-eabi/4.9.3/../../../../arm-none-eabi/lib/armv7e-m/fpu\libc.a(lib_a-wcrtomb.o)
 .debug_frame   0x00004ba4       0x48 c:/siliconlabs/simplicitystudio/v4/developer/toolchains/gnu_arm/4.9_2015q3/bin/../lib/gcc/arm-none-eabi/4.9.3/../../../../arm-none-eabi/lib/armv7e-m/fpu\libc.a(lib_a-wctomb_r.o)

.debug_loc      0x00000000    0x11e7f
 .debug_loc     0x00000000      0x501 ./aio.o
 .debug_loc     0x00000501      0x597 ./app.o
 .debug_loc     0x00000a98      0x391 ./app_ble.o
 .debug_loc     0x00000e29      0x17b ./app_ble_adv.o
 .debug_loc     0x00000fa4      0x283 ./batt.o
 .debug_loc     0x00001227       0x58 ./connection-callback.o
 .debug_loc     0x0000127f       0x42 ./connection.o
 .debug_loc     0x000012c1      0x3ff ./es.o
 .debug_loc     0x000016c0      0x2f1 ./iaq.o
 .debug_loc     0x000019b1      0x866 ./imus.o
 .debug_loc     0x00002217      0x320 ./main.o
 .debug_loc     0x00002537       0x6a ./power.o
 .debug_loc     0x000025a1      0x264 ./radio_ble.o
 .debug_loc     0x00002805      0x25a ./ui.o
 .debug_loc     0x00002a5f      0x4a1 ./hardware/kit/common/bsp/thunderboard/bap.o
 .debug_loc     0x00002f00     0x1c07 ./hardware/kit/common/bsp/thunderboard/board_4160.o
 .debug_loc     0x00004b07      0x966 ./hardware/kit/common/bsp/thunderboard/ccs811.o
 .debug_loc     0x0000546d     0x1853 ./hardware/kit/common/bsp/thunderboard/icm20648.o
 .debug_loc     0x00006cc0      0x413 ./hardware/kit/common/bsp/thunderboard/mic.o
 .debug_loc     0x000070d3     0x145c ./hardware/kit/common/bsp/thunderboard/si1133.o
 .debug_loc     0x0000852f      0x4c1 ./hardware/kit/common/bsp/thunderboard/si7021.o
 .debug_loc     0x000089f0       0xdf ./hardware/kit/common/bsp/thunderboard/util.o
 .debug_loc     0x00008acf      0x2ce ./hardware/kit/common/bsp/thunderboard/util_supply.o
 .debug_loc     0x00008d9d     0x1c84 ./hardware/kit/common/bsp/thunderboard/bosch/BMP280_driver/bmp280.o
 .debug_loc     0x0000aa21      0x2b4 ./hardware/kit/common/bsp/thunderboard/imu/imu.o
 .debug_loc     0x0000acd5      0x34a ./hardware/kit/common/bsp/thunderboard/imu/imu_dcm.o
 .debug_loc     0x0000b01f      0x41f ./hardware/kit/common/bsp/thunderboard/imu/imu_fuse.o
 .debug_loc     0x0000b43e      0x390 ./hardware/kit/common/bsp/thunderboard/imu/imu_math.o
 .debug_loc     0x0000b7ce      0x280 ./hardware/kit/common/drivers/i2cspm.o
 .debug_loc     0x0000ba4e      0x288 ./hardware/kit/common/drivers/retargetio.o
 .debug_loc     0x0000bcd6      0x11e ./hardware/kit/common/drivers/retargetserial.o
 .debug_loc     0x0000bdf4       0x4b ./platform/Device/SiliconLabs/EFR32MG1P/Source/GCC/startup_efr32mg1p.o
 .debug_loc     0x0000be3f     0x10da ./platform/emdrv/dmadrv/src/dmadrv.o
 .debug_loc     0x0000cf19      0x14f ./platform/emdrv/gpiointerrupt/src/gpiointerrupt.o
 .debug_loc     0x0000d068      0xc10 ./platform/emlib/src/em_adc.o
 .debug_loc     0x0000dc78     0x24af ./platform/emlib/src/em_cmu.o
 .debug_loc     0x00010127      0x636 ./platform/emlib/src/em_gpio.o
 .debug_loc     0x0001075d      0x859 ./platform/emlib/src/em_i2c.o
 .debug_loc     0x00010fb6      0x46d ./platform/emlib/src/em_ldma.o
 .debug_loc     0x00011423       0xe5 ./platform/emlib/src/em_prs.o
 .debug_loc     0x00011508       0x9c ./platform/emlib/src/em_system.o
 .debug_loc     0x000115a4      0x18c ./platform/emlib/src/em_timer.o
 .debug_loc     0x00011730      0x74f ./platform/emlib/src/em_usart.o
